Archive member included to satisfy reference by file (symbol)

/usr/local/Caskroom/gcc-arm-embedded/10-2020-q4-major/gcc-arm-none-eabi-10-2020-q4-major/bin/../lib/gcc/arm-none-eabi/10.2.1/../../../../arm-none-eabi/lib/thumb/v7-m/nofp/libg.a(lib_a-ctype_.o)
                              ./build/obj/chscanf.o (symbol from plugin) (_ctype_)
/usr/local/Caskroom/gcc-arm-embedded/10-2020-q4-major/gcc-arm-none-eabi-10-2020-q4-major/bin/../lib/gcc/arm-none-eabi/10.2.1/../../../../arm-none-eabi/lib/thumb/v7-m/nofp/libg.a(lib_a-memcmp.o)
                              /var/folders/yg/3nxcpv294hvfwgl_w3cbnbrh0000gn/T//ch.elf.rjwPRd.ltrans1.ltrans.o (memcmp)
/usr/local/Caskroom/gcc-arm-embedded/10-2020-q4-major/gcc-arm-none-eabi-10-2020-q4-major/bin/../lib/gcc/arm-none-eabi/10.2.1/../../../../arm-none-eabi/lib/thumb/v7-m/nofp/libg.a(lib_a-memcpy.o)
                              /var/folders/yg/3nxcpv294hvfwgl_w3cbnbrh0000gn/T//ch.elf.rjwPRd.ltrans0.ltrans.o (memcpy)
/usr/local/Caskroom/gcc-arm-embedded/10-2020-q4-major/gcc-arm-none-eabi-10-2020-q4-major/bin/../lib/gcc/arm-none-eabi/10.2.1/../../../../arm-none-eabi/lib/thumb/v7-m/nofp/libg.a(lib_a-memset.o)
                              /var/folders/yg/3nxcpv294hvfwgl_w3cbnbrh0000gn/T//ch.elf.rjwPRd.ltrans0.ltrans.o (memset)
/usr/local/Caskroom/gcc-arm-embedded/10-2020-q4-major/gcc-arm-none-eabi-10-2020-q4-major/bin/../lib/gcc/arm-none-eabi/10.2.1/../../../../arm-none-eabi/lib/thumb/v7-m/nofp/libg.a(lib_a-strchr.o)
                              /var/folders/yg/3nxcpv294hvfwgl_w3cbnbrh0000gn/T//ch.elf.rjwPRd.ltrans0.ltrans.o (strchr)
/usr/local/Caskroom/gcc-arm-embedded/10-2020-q4-major/gcc-arm-none-eabi-10-2020-q4-major/bin/../lib/gcc/arm-none-eabi/10.2.1/../../../../arm-none-eabi/lib/thumb/v7-m/nofp/libg.a(lib_a-strcmp.o)
                              /var/folders/yg/3nxcpv294hvfwgl_w3cbnbrh0000gn/T//ch.elf.rjwPRd.ltrans0.ltrans.o (strcmp)
/usr/local/Caskroom/gcc-arm-embedded/10-2020-q4-major/gcc-arm-none-eabi-10-2020-q4-major/bin/../lib/gcc/arm-none-eabi/10.2.1/../../../../arm-none-eabi/lib/thumb/v7-m/nofp/libg.a(lib_a-strcpy.o)
                              /var/folders/yg/3nxcpv294hvfwgl_w3cbnbrh0000gn/T//ch.elf.rjwPRd.ltrans1.ltrans.o (strcpy)
/usr/local/Caskroom/gcc-arm-embedded/10-2020-q4-major/gcc-arm-none-eabi-10-2020-q4-major/bin/../lib/gcc/arm-none-eabi/10.2.1/../../../../arm-none-eabi/lib/thumb/v7-m/nofp/libg.a(lib_a-strlen-stub.o)
                              /var/folders/yg/3nxcpv294hvfwgl_w3cbnbrh0000gn/T//ch.elf.rjwPRd.ltrans1.ltrans.o (strlen)
/usr/local/Caskroom/gcc-arm-embedded/10-2020-q4-major/gcc-arm-none-eabi-10-2020-q4-major/bin/../lib/gcc/arm-none-eabi/10.2.1/../../../../arm-none-eabi/lib/thumb/v7-m/nofp/libg.a(lib_a-strncmp.o)
                              /var/folders/yg/3nxcpv294hvfwgl_w3cbnbrh0000gn/T//ch.elf.rjwPRd.ltrans0.ltrans.o (strncmp)
/usr/local/Caskroom/gcc-arm-embedded/10-2020-q4-major/gcc-arm-none-eabi-10-2020-q4-major/bin/../lib/gcc/arm-none-eabi/10.2.1/../../../../arm-none-eabi/lib/thumb/v7-m/nofp/libg.a(lib_a-strpbrk.o)
                              /var/folders/yg/3nxcpv294hvfwgl_w3cbnbrh0000gn/T//ch.elf.rjwPRd.ltrans0.ltrans.o (strpbrk)
/usr/local/Caskroom/gcc-arm-embedded/10-2020-q4-major/gcc-arm-none-eabi-10-2020-q4-major/bin/../lib/gcc/arm-none-eabi/10.2.1/../../../../arm-none-eabi/lib/thumb/v7-m/nofp/libg.a(lib_a-strspn.o)
                              /var/folders/yg/3nxcpv294hvfwgl_w3cbnbrh0000gn/T//ch.elf.rjwPRd.ltrans0.ltrans.o (strspn)

Discarded input sections

 .data          0x0000000000000000        0x0 ./build/obj/crt0_v7m.o
 .bss           0x0000000000000000        0x0 ./build/obj/crt0_v7m.o
 .data          0x0000000000000000        0x0 ./build/obj/vectors.o
 .bss           0x0000000000000000        0x0 ./build/obj/vectors.o
 .data          0x0000000000000000        0x0 ./build/obj/chcoreasm.o
 .bss           0x0000000000000000        0x0 ./build/obj/chcoreasm.o
 .text          0x0000000000000000        0x0 /var/folders/yg/3nxcpv294hvfwgl_w3cbnbrh0000gn/T//ch.elf.rjwPRd.ltrans0.ltrans.o
 .data          0x0000000000000000        0x0 /var/folders/yg/3nxcpv294hvfwgl_w3cbnbrh0000gn/T//ch.elf.rjwPRd.ltrans0.ltrans.o
 .bss           0x0000000000000000        0x0 /var/folders/yg/3nxcpv294hvfwgl_w3cbnbrh0000gn/T//ch.elf.rjwPRd.ltrans0.ltrans.o
 .text          0x0000000000000000        0x0 /var/folders/yg/3nxcpv294hvfwgl_w3cbnbrh0000gn/T//ch.elf.rjwPRd.ltrans1.ltrans.o
 .data          0x0000000000000000        0x0 /var/folders/yg/3nxcpv294hvfwgl_w3cbnbrh0000gn/T//ch.elf.rjwPRd.ltrans1.ltrans.o
 .bss           0x0000000000000000        0x0 /var/folders/yg/3nxcpv294hvfwgl_w3cbnbrh0000gn/T//ch.elf.rjwPRd.ltrans1.ltrans.o
 .comment       0x0000000000000000       0x4e /var/folders/yg/3nxcpv294hvfwgl_w3cbnbrh0000gn/T//ccsc4w2v.debug.temp.o
 .comment       0x0000000000000000       0x4e /var/folders/yg/3nxcpv294hvfwgl_w3cbnbrh0000gn/T//ccEnBsBL.debug.temp.o
 .comment       0x0000000000000000       0x4e /var/folders/yg/3nxcpv294hvfwgl_w3cbnbrh0000gn/T//ccnPPcf1.debug.temp.o
 .comment       0x0000000000000000       0x4e /var/folders/yg/3nxcpv294hvfwgl_w3cbnbrh0000gn/T//ccqqkKEK.debug.temp.o
 .debug_info    0x0000000000000000      0x807 /var/folders/yg/3nxcpv294hvfwgl_w3cbnbrh0000gn/T//ccE5oIQr.debug.temp.o
 .debug_abbrev  0x0000000000000000      0x1b5 /var/folders/yg/3nxcpv294hvfwgl_w3cbnbrh0000gn/T//ccE5oIQr.debug.temp.o
 .debug_line    0x0000000000000000      0x2f5 /var/folders/yg/3nxcpv294hvfwgl_w3cbnbrh0000gn/T//ccE5oIQr.debug.temp.o
 .debug_str     0x0000000000000000      0x48c /var/folders/yg/3nxcpv294hvfwgl_w3cbnbrh0000gn/T//ccE5oIQr.debug.temp.o
 .comment       0x0000000000000000       0x4e /var/folders/yg/3nxcpv294hvfwgl_w3cbnbrh0000gn/T//ccE5oIQr.debug.temp.o
 .debug_info    0x0000000000000000      0x4c5 /var/folders/yg/3nxcpv294hvfwgl_w3cbnbrh0000gn/T//cchJVjTc.debug.temp.o
 .debug_abbrev  0x0000000000000000      0x13e /var/folders/yg/3nxcpv294hvfwgl_w3cbnbrh0000gn/T//cchJVjTc.debug.temp.o
 .debug_line    0x0000000000000000      0x246 /var/folders/yg/3nxcpv294hvfwgl_w3cbnbrh0000gn/T//cchJVjTc.debug.temp.o
 .debug_str     0x0000000000000000      0x4b1 /var/folders/yg/3nxcpv294hvfwgl_w3cbnbrh0000gn/T//cchJVjTc.debug.temp.o
 .comment       0x0000000000000000       0x4e /var/folders/yg/3nxcpv294hvfwgl_w3cbnbrh0000gn/T//cchJVjTc.debug.temp.o
 .comment       0x0000000000000000       0x4e /var/folders/yg/3nxcpv294hvfwgl_w3cbnbrh0000gn/T//ccaHgcBV.debug.temp.o
 .debug_info    0x0000000000000000      0x260 /var/folders/yg/3nxcpv294hvfwgl_w3cbnbrh0000gn/T//ccsMUYCt.debug.temp.o
 .debug_abbrev  0x0000000000000000      0x123 /var/folders/yg/3nxcpv294hvfwgl_w3cbnbrh0000gn/T//ccsMUYCt.debug.temp.o
 .debug_line    0x0000000000000000      0x257 /var/folders/yg/3nxcpv294hvfwgl_w3cbnbrh0000gn/T//ccsMUYCt.debug.temp.o
 .debug_str     0x0000000000000000      0x272 /var/folders/yg/3nxcpv294hvfwgl_w3cbnbrh0000gn/T//ccsMUYCt.debug.temp.o
 .comment       0x0000000000000000       0x4e /var/folders/yg/3nxcpv294hvfwgl_w3cbnbrh0000gn/T//ccsMUYCt.debug.temp.o
 .comment       0x0000000000000000       0x4e /var/folders/yg/3nxcpv294hvfwgl_w3cbnbrh0000gn/T//ccoEuz8b.debug.temp.o
 .comment       0x0000000000000000       0x4e /var/folders/yg/3nxcpv294hvfwgl_w3cbnbrh0000gn/T//cc47Gxtg.debug.temp.o
 .comment       0x0000000000000000       0x4e /var/folders/yg/3nxcpv294hvfwgl_w3cbnbrh0000gn/T//cckFYBf2.debug.temp.o
 .comment       0x0000000000000000       0x4e /var/folders/yg/3nxcpv294hvfwgl_w3cbnbrh0000gn/T//cc0tMju5.debug.temp.o
 .comment       0x0000000000000000       0x4e /var/folders/yg/3nxcpv294hvfwgl_w3cbnbrh0000gn/T//ccHzzi5N.debug.temp.o
 .comment       0x0000000000000000       0x4e /var/folders/yg/3nxcpv294hvfwgl_w3cbnbrh0000gn/T//ccFQM362.debug.temp.o
 .debug_info    0x0000000000000000       0x79 /var/folders/yg/3nxcpv294hvfwgl_w3cbnbrh0000gn/T//cchvLCfV.debug.temp.o
 .debug_abbrev  0x0000000000000000       0x26 /var/folders/yg/3nxcpv294hvfwgl_w3cbnbrh0000gn/T//cchvLCfV.debug.temp.o
 .debug_line    0x0000000000000000       0x1e /var/folders/yg/3nxcpv294hvfwgl_w3cbnbrh0000gn/T//cchvLCfV.debug.temp.o
 .debug_str     0x0000000000000000      0x1de /var/folders/yg/3nxcpv294hvfwgl_w3cbnbrh0000gn/T//cchvLCfV.debug.temp.o
 .comment       0x0000000000000000       0x4e /var/folders/yg/3nxcpv294hvfwgl_w3cbnbrh0000gn/T//cchvLCfV.debug.temp.o
 .comment       0x0000000000000000       0x4e /var/folders/yg/3nxcpv294hvfwgl_w3cbnbrh0000gn/T//ccc8RR6m.debug.temp.o
 .comment       0x0000000000000000       0x4e /var/folders/yg/3nxcpv294hvfwgl_w3cbnbrh0000gn/T//ccch4slX.debug.temp.o
 .comment       0x0000000000000000       0x4e /var/folders/yg/3nxcpv294hvfwgl_w3cbnbrh0000gn/T//ccKW2t2M.debug.temp.o
 .comment       0x0000000000000000       0x4e /var/folders/yg/3nxcpv294hvfwgl_w3cbnbrh0000gn/T//ccqB9LUH.debug.temp.o
 .comment       0x0000000000000000       0x4e /var/folders/yg/3nxcpv294hvfwgl_w3cbnbrh0000gn/T//ccYHJ1B4.debug.temp.o
 .comment       0x0000000000000000       0x4e /var/folders/yg/3nxcpv294hvfwgl_w3cbnbrh0000gn/T//cc3QhnFJ.debug.temp.o
 .debug_info    0x0000000000000000       0x79 /var/folders/yg/3nxcpv294hvfwgl_w3cbnbrh0000gn/T//ccQ5VUdm.debug.temp.o
 .debug_abbrev  0x0000000000000000       0x26 /var/folders/yg/3nxcpv294hvfwgl_w3cbnbrh0000gn/T//ccQ5VUdm.debug.temp.o
 .debug_line    0x0000000000000000       0x1e /var/folders/yg/3nxcpv294hvfwgl_w3cbnbrh0000gn/T//ccQ5VUdm.debug.temp.o
 .debug_str     0x0000000000000000      0x1cd /var/folders/yg/3nxcpv294hvfwgl_w3cbnbrh0000gn/T//ccQ5VUdm.debug.temp.o
 .comment       0x0000000000000000       0x4e /var/folders/yg/3nxcpv294hvfwgl_w3cbnbrh0000gn/T//ccQ5VUdm.debug.temp.o
 .comment       0x0000000000000000       0x4e /var/folders/yg/3nxcpv294hvfwgl_w3cbnbrh0000gn/T//ccLsnWLb.debug.temp.o
 .comment       0x0000000000000000       0x4e /var/folders/yg/3nxcpv294hvfwgl_w3cbnbrh0000gn/T//ccOLTT8T.debug.temp.o
 .debug_info    0x0000000000000000       0x79 /var/folders/yg/3nxcpv294hvfwgl_w3cbnbrh0000gn/T//ccqs1lGF.debug.temp.o
 .debug_abbrev  0x0000000000000000       0x26 /var/folders/yg/3nxcpv294hvfwgl_w3cbnbrh0000gn/T//ccqs1lGF.debug.temp.o
 .debug_line    0x0000000000000000       0x1e /var/folders/yg/3nxcpv294hvfwgl_w3cbnbrh0000gn/T//ccqs1lGF.debug.temp.o
 .debug_str     0x0000000000000000      0x1c7 /var/folders/yg/3nxcpv294hvfwgl_w3cbnbrh0000gn/T//ccqs1lGF.debug.temp.o
 .comment       0x0000000000000000       0x4e /var/folders/yg/3nxcpv294hvfwgl_w3cbnbrh0000gn/T//ccqs1lGF.debug.temp.o
 .debug_info    0x0000000000000000       0x79 /var/folders/yg/3nxcpv294hvfwgl_w3cbnbrh0000gn/T//cc9iHK8b.debug.temp.o
 .debug_abbrev  0x0000000000000000       0x26 /var/folders/yg/3nxcpv294hvfwgl_w3cbnbrh0000gn/T//cc9iHK8b.debug.temp.o
 .debug_line    0x0000000000000000       0x1e /var/folders/yg/3nxcpv294hvfwgl_w3cbnbrh0000gn/T//cc9iHK8b.debug.temp.o
 .debug_str     0x0000000000000000      0x1c7 /var/folders/yg/3nxcpv294hvfwgl_w3cbnbrh0000gn/T//cc9iHK8b.debug.temp.o
 .comment       0x0000000000000000       0x4e /var/folders/yg/3nxcpv294hvfwgl_w3cbnbrh0000gn/T//cc9iHK8b.debug.temp.o
 .comment       0x0000000000000000       0x4e /var/folders/yg/3nxcpv294hvfwgl_w3cbnbrh0000gn/T//ccyES0dk.debug.temp.o
 .comment       0x0000000000000000       0x4e /var/folders/yg/3nxcpv294hvfwgl_w3cbnbrh0000gn/T//cc2eTdRk.debug.temp.o
 .comment       0x0000000000000000       0x4e /var/folders/yg/3nxcpv294hvfwgl_w3cbnbrh0000gn/T//ccrq9Vrw.debug.temp.o
 .comment       0x0000000000000000       0x4e /var/folders/yg/3nxcpv294hvfwgl_w3cbnbrh0000gn/T//cca9wbrn.debug.temp.o
 .comment       0x0000000000000000       0x4e /var/folders/yg/3nxcpv294hvfwgl_w3cbnbrh0000gn/T//ccJFb7AH.debug.temp.o
 .comment       0x0000000000000000       0x4e /var/folders/yg/3nxcpv294hvfwgl_w3cbnbrh0000gn/T//ccu18jlC.debug.temp.o
 .comment       0x0000000000000000       0x4e /var/folders/yg/3nxcpv294hvfwgl_w3cbnbrh0000gn/T//ccGWGlU7.debug.temp.o
 .comment       0x0000000000000000       0x4e /var/folders/yg/3nxcpv294hvfwgl_w3cbnbrh0000gn/T//cczwCn8z.debug.temp.o
 .comment       0x0000000000000000       0x4e /var/folders/yg/3nxcpv294hvfwgl_w3cbnbrh0000gn/T//cchuCNYR.debug.temp.o
 .comment       0x0000000000000000       0x4e /var/folders/yg/3nxcpv294hvfwgl_w3cbnbrh0000gn/T//ccsBzqQ4.debug.temp.o
 .comment       0x0000000000000000       0x4e /var/folders/yg/3nxcpv294hvfwgl_w3cbnbrh0000gn/T//ccCA6jco.debug.temp.o
 .comment       0x0000000000000000       0x4e /var/folders/yg/3nxcpv294hvfwgl_w3cbnbrh0000gn/T//ccagiXP9.debug.temp.o
 .comment       0x0000000000000000       0x4e /var/folders/yg/3nxcpv294hvfwgl_w3cbnbrh0000gn/T//ccz9cfOn.debug.temp.o
 .comment       0x0000000000000000       0x4e /var/folders/yg/3nxcpv294hvfwgl_w3cbnbrh0000gn/T//ccVHwVMv.debug.temp.o
 .comment       0x0000000000000000       0x4e /var/folders/yg/3nxcpv294hvfwgl_w3cbnbrh0000gn/T//cckBlZvD.debug.temp.o
 .comment       0x0000000000000000       0x4e /var/folders/yg/3nxcpv294hvfwgl_w3cbnbrh0000gn/T//ccJ1rvLE.debug.temp.o
 .comment       0x0000000000000000       0x4e /var/folders/yg/3nxcpv294hvfwgl_w3cbnbrh0000gn/T//ccsZX2SD.debug.temp.o
 .comment       0x0000000000000000       0x4e /var/folders/yg/3nxcpv294hvfwgl_w3cbnbrh0000gn/T//cc6FCR9q.debug.temp.o
 .comment       0x0000000000000000       0x4e /var/folders/yg/3nxcpv294hvfwgl_w3cbnbrh0000gn/T//ccmnndzo.debug.temp.o
 .comment       0x0000000000000000       0x4e /var/folders/yg/3nxcpv294hvfwgl_w3cbnbrh0000gn/T//ccREkILu.debug.temp.o
 .comment       0x0000000000000000       0x4e /var/folders/yg/3nxcpv294hvfwgl_w3cbnbrh0000gn/T//ccfUj7Ic.debug.temp.o
 .comment       0x0000000000000000       0x4e /var/folders/yg/3nxcpv294hvfwgl_w3cbnbrh0000gn/T//ccGvMwdD.debug.temp.o
 .comment       0x0000000000000000       0x4e /var/folders/yg/3nxcpv294hvfwgl_w3cbnbrh0000gn/T//ccyx9CQf.debug.temp.o
 .debug_info    0x0000000000000000      0x4d1 /var/folders/yg/3nxcpv294hvfwgl_w3cbnbrh0000gn/T//ccJZcxyu.debug.temp.o
 .debug_abbrev  0x0000000000000000      0x19a /var/folders/yg/3nxcpv294hvfwgl_w3cbnbrh0000gn/T//ccJZcxyu.debug.temp.o
 .debug_line    0x0000000000000000      0x2cd /var/folders/yg/3nxcpv294hvfwgl_w3cbnbrh0000gn/T//ccJZcxyu.debug.temp.o
 .debug_str     0x0000000000000000      0x31e /var/folders/yg/3nxcpv294hvfwgl_w3cbnbrh0000gn/T//ccJZcxyu.debug.temp.o
 .comment       0x0000000000000000       0x4e /var/folders/yg/3nxcpv294hvfwgl_w3cbnbrh0000gn/T//ccJZcxyu.debug.temp.o
 .debug_info    0x0000000000000000      0x35a /var/folders/yg/3nxcpv294hvfwgl_w3cbnbrh0000gn/T//ccTwW8Hb.debug.temp.o
 .debug_abbrev  0x0000000000000000      0x104 /var/folders/yg/3nxcpv294hvfwgl_w3cbnbrh0000gn/T//ccTwW8Hb.debug.temp.o
 .debug_line    0x0000000000000000      0x213 /var/folders/yg/3nxcpv294hvfwgl_w3cbnbrh0000gn/T//ccTwW8Hb.debug.temp.o
 .debug_str     0x0000000000000000      0x27f /var/folders/yg/3nxcpv294hvfwgl_w3cbnbrh0000gn/T//ccTwW8Hb.debug.temp.o
 .comment       0x0000000000000000       0x4e /var/folders/yg/3nxcpv294hvfwgl_w3cbnbrh0000gn/T//ccTwW8Hb.debug.temp.o
 .debug_info    0x0000000000000000      0x2bc /var/folders/yg/3nxcpv294hvfwgl_w3cbnbrh0000gn/T//cci6EAd4.debug.temp.o
 .debug_abbrev  0x0000000000000000      0x108 /var/folders/yg/3nxcpv294hvfwgl_w3cbnbrh0000gn/T//cci6EAd4.debug.temp.o
 .debug_line    0x0000000000000000      0x215 /var/folders/yg/3nxcpv294hvfwgl_w3cbnbrh0000gn/T//cci6EAd4.debug.temp.o
 .debug_str     0x0000000000000000      0x25b /var/folders/yg/3nxcpv294hvfwgl_w3cbnbrh0000gn/T//cci6EAd4.debug.temp.o
 .comment       0x0000000000000000       0x4e /var/folders/yg/3nxcpv294hvfwgl_w3cbnbrh0000gn/T//cci6EAd4.debug.temp.o
 .debug_info    0x0000000000000000      0x3e2 /var/folders/yg/3nxcpv294hvfwgl_w3cbnbrh0000gn/T//cc7gTef4.debug.temp.o
 .debug_abbrev  0x0000000000000000      0x125 /var/folders/yg/3nxcpv294hvfwgl_w3cbnbrh0000gn/T//cc7gTef4.debug.temp.o
 .debug_line    0x0000000000000000      0x23c /var/folders/yg/3nxcpv294hvfwgl_w3cbnbrh0000gn/T//cc7gTef4.debug.temp.o
 .debug_str     0x0000000000000000      0x2d9 /var/folders/yg/3nxcpv294hvfwgl_w3cbnbrh0000gn/T//cc7gTef4.debug.temp.o
 .comment       0x0000000000000000       0x4e /var/folders/yg/3nxcpv294hvfwgl_w3cbnbrh0000gn/T//cc7gTef4.debug.temp.o
 .comment       0x0000000000000000       0x4e /var/folders/yg/3nxcpv294hvfwgl_w3cbnbrh0000gn/T//cc2fkOpI.debug.temp.o
 .comment       0x0000000000000000       0x4e /var/folders/yg/3nxcpv294hvfwgl_w3cbnbrh0000gn/T//cch7ycES.debug.temp.o
 .comment       0x0000000000000000       0x4e /var/folders/yg/3nxcpv294hvfwgl_w3cbnbrh0000gn/T//ccWYoy8A.debug.temp.o
 .comment       0x0000000000000000       0x4e /var/folders/yg/3nxcpv294hvfwgl_w3cbnbrh0000gn/T//ccrBykP2.debug.temp.o
 .comment       0x0000000000000000       0x4e /var/folders/yg/3nxcpv294hvfwgl_w3cbnbrh0000gn/T//ccd3BiZf.debug.temp.o
 .comment       0x0000000000000000       0x4e /var/folders/yg/3nxcpv294hvfwgl_w3cbnbrh0000gn/T//ccVHUzBX.debug.temp.o
 .comment       0x0000000000000000       0x4e /var/folders/yg/3nxcpv294hvfwgl_w3cbnbrh0000gn/T//cc5GxNhn.debug.temp.o
 .comment       0x0000000000000000       0x4e /var/folders/yg/3nxcpv294hvfwgl_w3cbnbrh0000gn/T//ccNCraa9.debug.temp.o
 .comment       0x0000000000000000       0x4e /var/folders/yg/3nxcpv294hvfwgl_w3cbnbrh0000gn/T//cczLSz6x.debug.temp.o
 .comment       0x0000000000000000       0x4e /var/folders/yg/3nxcpv294hvfwgl_w3cbnbrh0000gn/T//ccIzoWp0.debug.temp.o
 .comment       0x0000000000000000       0x4e /var/folders/yg/3nxcpv294hvfwgl_w3cbnbrh0000gn/T//cckQ3Wnr.debug.temp.o
 .comment       0x0000000000000000       0x4e /var/folders/yg/3nxcpv294hvfwgl_w3cbnbrh0000gn/T//ccVfZGDE.debug.temp.o
 .comment       0x0000000000000000       0x4e /var/folders/yg/3nxcpv294hvfwgl_w3cbnbrh0000gn/T//ccWpQNbm.debug.temp.o
 .comment       0x0000000000000000       0x4e /var/folders/yg/3nxcpv294hvfwgl_w3cbnbrh0000gn/T//cc7reZA1.debug.temp.o
 .comment       0x0000000000000000       0x4e /var/folders/yg/3nxcpv294hvfwgl_w3cbnbrh0000gn/T//ccPhqrTt.debug.temp.o
 .comment       0x0000000000000000       0x4e /var/folders/yg/3nxcpv294hvfwgl_w3cbnbrh0000gn/T//ccmcEBBm.debug.temp.o
 .comment       0x0000000000000000       0x4e /var/folders/yg/3nxcpv294hvfwgl_w3cbnbrh0000gn/T//ccwiXVqR.debug.temp.o
 .comment       0x0000000000000000       0x4e /var/folders/yg/3nxcpv294hvfwgl_w3cbnbrh0000gn/T//ccyg6n8a.debug.temp.o
 .comment       0x0000000000000000       0x4e /var/folders/yg/3nxcpv294hvfwgl_w3cbnbrh0000gn/T//ccVnyM8M.debug.temp.o
 .comment       0x0000000000000000       0x4e /var/folders/yg/3nxcpv294hvfwgl_w3cbnbrh0000gn/T//cca1IPIp.debug.temp.o
 .comment       0x0000000000000000       0x4e /var/folders/yg/3nxcpv294hvfwgl_w3cbnbrh0000gn/T//ccX1xGxm.debug.temp.o
 .comment       0x0000000000000000       0x4e /var/folders/yg/3nxcpv294hvfwgl_w3cbnbrh0000gn/T//cc3UofA7.debug.temp.o
 .comment       0x0000000000000000       0x4e /var/folders/yg/3nxcpv294hvfwgl_w3cbnbrh0000gn/T//ccVq3MXJ.debug.temp.o
 .comment       0x0000000000000000       0x4e /var/folders/yg/3nxcpv294hvfwgl_w3cbnbrh0000gn/T//ccfwoRTi.debug.temp.o
 .comment       0x0000000000000000       0x4e /var/folders/yg/3nxcpv294hvfwgl_w3cbnbrh0000gn/T//ccELGOWK.debug.temp.o
 .comment       0x0000000000000000       0x4e /var/folders/yg/3nxcpv294hvfwgl_w3cbnbrh0000gn/T//ccmQFuwB.debug.temp.o
 .comment       0x0000000000000000       0x4e /var/folders/yg/3nxcpv294hvfwgl_w3cbnbrh0000gn/T//cc1cQscI.debug.temp.o
 .comment       0x0000000000000000       0x4e /var/folders/yg/3nxcpv294hvfwgl_w3cbnbrh0000gn/T//cc4Di5Oo.debug.temp.o
 .comment       0x0000000000000000       0x4e /var/folders/yg/3nxcpv294hvfwgl_w3cbnbrh0000gn/T//ccoOqWUS.debug.temp.o
 .comment       0x0000000000000000       0x4e /var/folders/yg/3nxcpv294hvfwgl_w3cbnbrh0000gn/T//cc6STcVk.debug.temp.o
 .comment       0x0000000000000000       0x4e /var/folders/yg/3nxcpv294hvfwgl_w3cbnbrh0000gn/T//cce7fzph.debug.temp.o
 .comment       0x0000000000000000       0x4e /var/folders/yg/3nxcpv294hvfwgl_w3cbnbrh0000gn/T//ccin0BHY.debug.temp.o
 .text          0x0000000000000000        0x0 /usr/local/Caskroom/gcc-arm-embedded/10-2020-q4-major/gcc-arm-none-eabi-10-2020-q4-major/bin/../lib/gcc/arm-none-eabi/10.2.1/../../../../arm-none-eabi/lib/thumb/v7-m/nofp/libg.a(lib_a-ctype_.o)
 .data          0x0000000000000000        0x0 /usr/local/Caskroom/gcc-arm-embedded/10-2020-q4-major/gcc-arm-none-eabi-10-2020-q4-major/bin/../lib/gcc/arm-none-eabi/10.2.1/../../../../arm-none-eabi/lib/thumb/v7-m/nofp/libg.a(lib_a-ctype_.o)
 .bss           0x0000000000000000        0x0 /usr/local/Caskroom/gcc-arm-embedded/10-2020-q4-major/gcc-arm-none-eabi-10-2020-q4-major/bin/../lib/gcc/arm-none-eabi/10.2.1/../../../../arm-none-eabi/lib/thumb/v7-m/nofp/libg.a(lib_a-ctype_.o)
 .rodata._ctype_
                0x0000000000000000      0x101 /usr/local/Caskroom/gcc-arm-embedded/10-2020-q4-major/gcc-arm-none-eabi-10-2020-q4-major/bin/../lib/gcc/arm-none-eabi/10.2.1/../../../../arm-none-eabi/lib/thumb/v7-m/nofp/libg.a(lib_a-ctype_.o)
 .ARM.attributes
                0x0000000000000000       0x2d /usr/local/Caskroom/gcc-arm-embedded/10-2020-q4-major/gcc-arm-none-eabi-10-2020-q4-major/bin/../lib/gcc/arm-none-eabi/10.2.1/../../../../arm-none-eabi/lib/thumb/v7-m/nofp/libg.a(lib_a-ctype_.o)
 .text          0x0000000000000000        0x0 /usr/local/Caskroom/gcc-arm-embedded/10-2020-q4-major/gcc-arm-none-eabi-10-2020-q4-major/bin/../lib/gcc/arm-none-eabi/10.2.1/../../../../arm-none-eabi/lib/thumb/v7-m/nofp/libg.a(lib_a-memcmp.o)
 .data          0x0000000000000000        0x0 /usr/local/Caskroom/gcc-arm-embedded/10-2020-q4-major/gcc-arm-none-eabi-10-2020-q4-major/bin/../lib/gcc/arm-none-eabi/10.2.1/../../../../arm-none-eabi/lib/thumb/v7-m/nofp/libg.a(lib_a-memcmp.o)
 .bss           0x0000000000000000        0x0 /usr/local/Caskroom/gcc-arm-embedded/10-2020-q4-major/gcc-arm-none-eabi-10-2020-q4-major/bin/../lib/gcc/arm-none-eabi/10.2.1/../../../../arm-none-eabi/lib/thumb/v7-m/nofp/libg.a(lib_a-memcmp.o)
 .data          0x0000000000000000        0x0 /usr/local/Caskroom/gcc-arm-embedded/10-2020-q4-major/gcc-arm-none-eabi-10-2020-q4-major/bin/../lib/gcc/arm-none-eabi/10.2.1/../../../../arm-none-eabi/lib/thumb/v7-m/nofp/libg.a(lib_a-memcpy.o)
 .bss           0x0000000000000000        0x0 /usr/local/Caskroom/gcc-arm-embedded/10-2020-q4-major/gcc-arm-none-eabi-10-2020-q4-major/bin/../lib/gcc/arm-none-eabi/10.2.1/../../../../arm-none-eabi/lib/thumb/v7-m/nofp/libg.a(lib_a-memcpy.o)
 .text          0x0000000000000000        0x0 /usr/local/Caskroom/gcc-arm-embedded/10-2020-q4-major/gcc-arm-none-eabi-10-2020-q4-major/bin/../lib/gcc/arm-none-eabi/10.2.1/../../../../arm-none-eabi/lib/thumb/v7-m/nofp/libg.a(lib_a-memset.o)
 .data          0x0000000000000000        0x0 /usr/local/Caskroom/gcc-arm-embedded/10-2020-q4-major/gcc-arm-none-eabi-10-2020-q4-major/bin/../lib/gcc/arm-none-eabi/10.2.1/../../../../arm-none-eabi/lib/thumb/v7-m/nofp/libg.a(lib_a-memset.o)
 .bss           0x0000000000000000        0x0 /usr/local/Caskroom/gcc-arm-embedded/10-2020-q4-major/gcc-arm-none-eabi-10-2020-q4-major/bin/../lib/gcc/arm-none-eabi/10.2.1/../../../../arm-none-eabi/lib/thumb/v7-m/nofp/libg.a(lib_a-memset.o)
 .text          0x0000000000000000        0x0 /usr/local/Caskroom/gcc-arm-embedded/10-2020-q4-major/gcc-arm-none-eabi-10-2020-q4-major/bin/../lib/gcc/arm-none-eabi/10.2.1/../../../../arm-none-eabi/lib/thumb/v7-m/nofp/libg.a(lib_a-strchr.o)
 .data          0x0000000000000000        0x0 /usr/local/Caskroom/gcc-arm-embedded/10-2020-q4-major/gcc-arm-none-eabi-10-2020-q4-major/bin/../lib/gcc/arm-none-eabi/10.2.1/../../../../arm-none-eabi/lib/thumb/v7-m/nofp/libg.a(lib_a-strchr.o)
 .bss           0x0000000000000000        0x0 /usr/local/Caskroom/gcc-arm-embedded/10-2020-q4-major/gcc-arm-none-eabi-10-2020-q4-major/bin/../lib/gcc/arm-none-eabi/10.2.1/../../../../arm-none-eabi/lib/thumb/v7-m/nofp/libg.a(lib_a-strchr.o)
 .data          0x0000000000000000        0x0 /usr/local/Caskroom/gcc-arm-embedded/10-2020-q4-major/gcc-arm-none-eabi-10-2020-q4-major/bin/../lib/gcc/arm-none-eabi/10.2.1/../../../../arm-none-eabi/lib/thumb/v7-m/nofp/libg.a(lib_a-strcmp.o)
 .bss           0x0000000000000000        0x0 /usr/local/Caskroom/gcc-arm-embedded/10-2020-q4-major/gcc-arm-none-eabi-10-2020-q4-major/bin/../lib/gcc/arm-none-eabi/10.2.1/../../../../arm-none-eabi/lib/thumb/v7-m/nofp/libg.a(lib_a-strcmp.o)
 .text          0x0000000000000000        0x0 /usr/local/Caskroom/gcc-arm-embedded/10-2020-q4-major/gcc-arm-none-eabi-10-2020-q4-major/bin/../lib/gcc/arm-none-eabi/10.2.1/../../../../arm-none-eabi/lib/thumb/v7-m/nofp/libg.a(lib_a-strcpy.o)
 .data          0x0000000000000000        0x0 /usr/local/Caskroom/gcc-arm-embedded/10-2020-q4-major/gcc-arm-none-eabi-10-2020-q4-major/bin/../lib/gcc/arm-none-eabi/10.2.1/../../../../arm-none-eabi/lib/thumb/v7-m/nofp/libg.a(lib_a-strcpy.o)
 .bss           0x0000000000000000        0x0 /usr/local/Caskroom/gcc-arm-embedded/10-2020-q4-major/gcc-arm-none-eabi-10-2020-q4-major/bin/../lib/gcc/arm-none-eabi/10.2.1/../../../../arm-none-eabi/lib/thumb/v7-m/nofp/libg.a(lib_a-strcpy.o)
 .text          0x0000000000000000        0x0 /usr/local/Caskroom/gcc-arm-embedded/10-2020-q4-major/gcc-arm-none-eabi-10-2020-q4-major/bin/../lib/gcc/arm-none-eabi/10.2.1/../../../../arm-none-eabi/lib/thumb/v7-m/nofp/libg.a(lib_a-strlen-stub.o)
 .data          0x0000000000000000        0x0 /usr/local/Caskroom/gcc-arm-embedded/10-2020-q4-major/gcc-arm-none-eabi-10-2020-q4-major/bin/../lib/gcc/arm-none-eabi/10.2.1/../../../../arm-none-eabi/lib/thumb/v7-m/nofp/libg.a(lib_a-strlen-stub.o)
 .bss           0x0000000000000000        0x0 /usr/local/Caskroom/gcc-arm-embedded/10-2020-q4-major/gcc-arm-none-eabi-10-2020-q4-major/bin/../lib/gcc/arm-none-eabi/10.2.1/../../../../arm-none-eabi/lib/thumb/v7-m/nofp/libg.a(lib_a-strlen-stub.o)
 .text          0x0000000000000000        0x0 /usr/local/Caskroom/gcc-arm-embedded/10-2020-q4-major/gcc-arm-none-eabi-10-2020-q4-major/bin/../lib/gcc/arm-none-eabi/10.2.1/../../../../arm-none-eabi/lib/thumb/v7-m/nofp/libg.a(lib_a-strncmp.o)
 .data          0x0000000000000000        0x0 /usr/local/Caskroom/gcc-arm-embedded/10-2020-q4-major/gcc-arm-none-eabi-10-2020-q4-major/bin/../lib/gcc/arm-none-eabi/10.2.1/../../../../arm-none-eabi/lib/thumb/v7-m/nofp/libg.a(lib_a-strncmp.o)
 .bss           0x0000000000000000        0x0 /usr/local/Caskroom/gcc-arm-embedded/10-2020-q4-major/gcc-arm-none-eabi-10-2020-q4-major/bin/../lib/gcc/arm-none-eabi/10.2.1/../../../../arm-none-eabi/lib/thumb/v7-m/nofp/libg.a(lib_a-strncmp.o)
 .text          0x0000000000000000        0x0 /usr/local/Caskroom/gcc-arm-embedded/10-2020-q4-major/gcc-arm-none-eabi-10-2020-q4-major/bin/../lib/gcc/arm-none-eabi/10.2.1/../../../../arm-none-eabi/lib/thumb/v7-m/nofp/libg.a(lib_a-strpbrk.o)
 .data          0x0000000000000000        0x0 /usr/local/Caskroom/gcc-arm-embedded/10-2020-q4-major/gcc-arm-none-eabi-10-2020-q4-major/bin/../lib/gcc/arm-none-eabi/10.2.1/../../../../arm-none-eabi/lib/thumb/v7-m/nofp/libg.a(lib_a-strpbrk.o)
 .bss           0x0000000000000000        0x0 /usr/local/Caskroom/gcc-arm-embedded/10-2020-q4-major/gcc-arm-none-eabi-10-2020-q4-major/bin/../lib/gcc/arm-none-eabi/10.2.1/../../../../arm-none-eabi/lib/thumb/v7-m/nofp/libg.a(lib_a-strpbrk.o)
 .text          0x0000000000000000        0x0 /usr/local/Caskroom/gcc-arm-embedded/10-2020-q4-major/gcc-arm-none-eabi-10-2020-q4-major/bin/../lib/gcc/arm-none-eabi/10.2.1/../../../../arm-none-eabi/lib/thumb/v7-m/nofp/libg.a(lib_a-strspn.o)
 .data          0x0000000000000000        0x0 /usr/local/Caskroom/gcc-arm-embedded/10-2020-q4-major/gcc-arm-none-eabi-10-2020-q4-major/bin/../lib/gcc/arm-none-eabi/10.2.1/../../../../arm-none-eabi/lib/thumb/v7-m/nofp/libg.a(lib_a-strspn.o)
 .bss           0x0000000000000000        0x0 /usr/local/Caskroom/gcc-arm-embedded/10-2020-q4-major/gcc-arm-none-eabi-10-2020-q4-major/bin/../lib/gcc/arm-none-eabi/10.2.1/../../../../arm-none-eabi/lib/thumb/v7-m/nofp/libg.a(lib_a-strspn.o)

Memory Configuration

Name             Origin             Length             Attributes
flash0           0x0000000008000000 0x0000000000100000 xr
flash1           0x0000000000000000 0x0000000000000000 xr
flash2           0x0000000000000000 0x0000000000000000 xr
flash3           0x0000000000000000 0x0000000000000000 xr
flash4           0x0000000000000000 0x0000000000000000 xr
flash5           0x0000000000000000 0x0000000000000000 xr
flash6           0x0000000000000000 0x0000000000000000 xr
flash7           0x0000000000000000 0x0000000000000000 xr
ram0             0x0000000020000000 0x0000000000018000 xw
ram1             0x0000000000000000 0x0000000000000000 xw
ram2             0x0000000000000000 0x0000000000000000 xw
ram3             0x0000000000000000 0x0000000000000000 xw
ram4             0x0000000000000000 0x0000000000000000 xw
ram5             0x0000000000000000 0x0000000000000000 xw
ram6             0x0000000000000000 0x0000000000000000 xw
ram7             0x0000000000000000 0x0000000000000000 xw
*default*        0x0000000000000000 0xffffffffffffffff

Linker script and memory map

LOAD ./build/obj/crt0_v7m.o
LOAD ./build/obj/vectors.o
LOAD ./build/obj/chcoreasm.o
LOAD ./build/obj/crt1.o
LOAD /var/folders/yg/3nxcpv294hvfwgl_w3cbnbrh0000gn/T//ch.elf.rjwPRd.ltrans0.ltrans.o
LOAD /var/folders/yg/3nxcpv294hvfwgl_w3cbnbrh0000gn/T//ch.elf.rjwPRd.ltrans1.ltrans.o
LOAD /var/folders/yg/3nxcpv294hvfwgl_w3cbnbrh0000gn/T//ccsc4w2v.debug.temp.o
LOAD /var/folders/yg/3nxcpv294hvfwgl_w3cbnbrh0000gn/T//ccEnBsBL.debug.temp.o
LOAD /var/folders/yg/3nxcpv294hvfwgl_w3cbnbrh0000gn/T//ccnPPcf1.debug.temp.o
LOAD /var/folders/yg/3nxcpv294hvfwgl_w3cbnbrh0000gn/T//ccqqkKEK.debug.temp.o
LOAD /var/folders/yg/3nxcpv294hvfwgl_w3cbnbrh0000gn/T//ccE5oIQr.debug.temp.o
LOAD /var/folders/yg/3nxcpv294hvfwgl_w3cbnbrh0000gn/T//cchJVjTc.debug.temp.o
LOAD /var/folders/yg/3nxcpv294hvfwgl_w3cbnbrh0000gn/T//ccaHgcBV.debug.temp.o
LOAD /var/folders/yg/3nxcpv294hvfwgl_w3cbnbrh0000gn/T//ccsMUYCt.debug.temp.o
LOAD /var/folders/yg/3nxcpv294hvfwgl_w3cbnbrh0000gn/T//ccoEuz8b.debug.temp.o
LOAD /var/folders/yg/3nxcpv294hvfwgl_w3cbnbrh0000gn/T//cc47Gxtg.debug.temp.o
LOAD /var/folders/yg/3nxcpv294hvfwgl_w3cbnbrh0000gn/T//cckFYBf2.debug.temp.o
LOAD /var/folders/yg/3nxcpv294hvfwgl_w3cbnbrh0000gn/T//cc0tMju5.debug.temp.o
LOAD /var/folders/yg/3nxcpv294hvfwgl_w3cbnbrh0000gn/T//ccHzzi5N.debug.temp.o
LOAD /var/folders/yg/3nxcpv294hvfwgl_w3cbnbrh0000gn/T//ccFQM362.debug.temp.o
LOAD /var/folders/yg/3nxcpv294hvfwgl_w3cbnbrh0000gn/T//cchvLCfV.debug.temp.o
LOAD /var/folders/yg/3nxcpv294hvfwgl_w3cbnbrh0000gn/T//ccc8RR6m.debug.temp.o
LOAD /var/folders/yg/3nxcpv294hvfwgl_w3cbnbrh0000gn/T//ccch4slX.debug.temp.o
LOAD /var/folders/yg/3nxcpv294hvfwgl_w3cbnbrh0000gn/T//ccKW2t2M.debug.temp.o
LOAD /var/folders/yg/3nxcpv294hvfwgl_w3cbnbrh0000gn/T//ccqB9LUH.debug.temp.o
LOAD /var/folders/yg/3nxcpv294hvfwgl_w3cbnbrh0000gn/T//ccYHJ1B4.debug.temp.o
LOAD /var/folders/yg/3nxcpv294hvfwgl_w3cbnbrh0000gn/T//cc3QhnFJ.debug.temp.o
LOAD /var/folders/yg/3nxcpv294hvfwgl_w3cbnbrh0000gn/T//ccQ5VUdm.debug.temp.o
LOAD /var/folders/yg/3nxcpv294hvfwgl_w3cbnbrh0000gn/T//ccLsnWLb.debug.temp.o
LOAD /var/folders/yg/3nxcpv294hvfwgl_w3cbnbrh0000gn/T//ccOLTT8T.debug.temp.o
LOAD /var/folders/yg/3nxcpv294hvfwgl_w3cbnbrh0000gn/T//ccqs1lGF.debug.temp.o
LOAD /var/folders/yg/3nxcpv294hvfwgl_w3cbnbrh0000gn/T//cc9iHK8b.debug.temp.o
LOAD /var/folders/yg/3nxcpv294hvfwgl_w3cbnbrh0000gn/T//ccyES0dk.debug.temp.o
LOAD /var/folders/yg/3nxcpv294hvfwgl_w3cbnbrh0000gn/T//cc2eTdRk.debug.temp.o
LOAD /var/folders/yg/3nxcpv294hvfwgl_w3cbnbrh0000gn/T//ccrq9Vrw.debug.temp.o
LOAD /var/folders/yg/3nxcpv294hvfwgl_w3cbnbrh0000gn/T//cca9wbrn.debug.temp.o
LOAD /var/folders/yg/3nxcpv294hvfwgl_w3cbnbrh0000gn/T//ccJFb7AH.debug.temp.o
LOAD /var/folders/yg/3nxcpv294hvfwgl_w3cbnbrh0000gn/T//ccu18jlC.debug.temp.o
LOAD /var/folders/yg/3nxcpv294hvfwgl_w3cbnbrh0000gn/T//ccGWGlU7.debug.temp.o
LOAD /var/folders/yg/3nxcpv294hvfwgl_w3cbnbrh0000gn/T//cczwCn8z.debug.temp.o
LOAD /var/folders/yg/3nxcpv294hvfwgl_w3cbnbrh0000gn/T//cchuCNYR.debug.temp.o
LOAD /var/folders/yg/3nxcpv294hvfwgl_w3cbnbrh0000gn/T//ccsBzqQ4.debug.temp.o
LOAD /var/folders/yg/3nxcpv294hvfwgl_w3cbnbrh0000gn/T//ccCA6jco.debug.temp.o
LOAD /var/folders/yg/3nxcpv294hvfwgl_w3cbnbrh0000gn/T//ccagiXP9.debug.temp.o
LOAD /var/folders/yg/3nxcpv294hvfwgl_w3cbnbrh0000gn/T//ccz9cfOn.debug.temp.o
LOAD /var/folders/yg/3nxcpv294hvfwgl_w3cbnbrh0000gn/T//ccVHwVMv.debug.temp.o
LOAD /var/folders/yg/3nxcpv294hvfwgl_w3cbnbrh0000gn/T//cckBlZvD.debug.temp.o
LOAD /var/folders/yg/3nxcpv294hvfwgl_w3cbnbrh0000gn/T//ccJ1rvLE.debug.temp.o
LOAD /var/folders/yg/3nxcpv294hvfwgl_w3cbnbrh0000gn/T//ccsZX2SD.debug.temp.o
LOAD /var/folders/yg/3nxcpv294hvfwgl_w3cbnbrh0000gn/T//cc6FCR9q.debug.temp.o
LOAD /var/folders/yg/3nxcpv294hvfwgl_w3cbnbrh0000gn/T//ccmnndzo.debug.temp.o
LOAD /var/folders/yg/3nxcpv294hvfwgl_w3cbnbrh0000gn/T//ccREkILu.debug.temp.o
LOAD /var/folders/yg/3nxcpv294hvfwgl_w3cbnbrh0000gn/T//ccfUj7Ic.debug.temp.o
LOAD /var/folders/yg/3nxcpv294hvfwgl_w3cbnbrh0000gn/T//ccGvMwdD.debug.temp.o
LOAD /var/folders/yg/3nxcpv294hvfwgl_w3cbnbrh0000gn/T//ccyx9CQf.debug.temp.o
LOAD /var/folders/yg/3nxcpv294hvfwgl_w3cbnbrh0000gn/T//ccJZcxyu.debug.temp.o
LOAD /var/folders/yg/3nxcpv294hvfwgl_w3cbnbrh0000gn/T//ccTwW8Hb.debug.temp.o
LOAD /var/folders/yg/3nxcpv294hvfwgl_w3cbnbrh0000gn/T//cci6EAd4.debug.temp.o
LOAD /var/folders/yg/3nxcpv294hvfwgl_w3cbnbrh0000gn/T//cc7gTef4.debug.temp.o
LOAD /var/folders/yg/3nxcpv294hvfwgl_w3cbnbrh0000gn/T//cc2fkOpI.debug.temp.o
LOAD /var/folders/yg/3nxcpv294hvfwgl_w3cbnbrh0000gn/T//cch7ycES.debug.temp.o
LOAD /var/folders/yg/3nxcpv294hvfwgl_w3cbnbrh0000gn/T//ccWYoy8A.debug.temp.o
LOAD /var/folders/yg/3nxcpv294hvfwgl_w3cbnbrh0000gn/T//ccrBykP2.debug.temp.o
LOAD /var/folders/yg/3nxcpv294hvfwgl_w3cbnbrh0000gn/T//ccd3BiZf.debug.temp.o
LOAD /var/folders/yg/3nxcpv294hvfwgl_w3cbnbrh0000gn/T//ccVHUzBX.debug.temp.o
LOAD /var/folders/yg/3nxcpv294hvfwgl_w3cbnbrh0000gn/T//cc5GxNhn.debug.temp.o
LOAD /var/folders/yg/3nxcpv294hvfwgl_w3cbnbrh0000gn/T//ccNCraa9.debug.temp.o
LOAD /var/folders/yg/3nxcpv294hvfwgl_w3cbnbrh0000gn/T//cczLSz6x.debug.temp.o
LOAD /var/folders/yg/3nxcpv294hvfwgl_w3cbnbrh0000gn/T//ccIzoWp0.debug.temp.o
LOAD /var/folders/yg/3nxcpv294hvfwgl_w3cbnbrh0000gn/T//cckQ3Wnr.debug.temp.o
LOAD /var/folders/yg/3nxcpv294hvfwgl_w3cbnbrh0000gn/T//ccVfZGDE.debug.temp.o
LOAD /var/folders/yg/3nxcpv294hvfwgl_w3cbnbrh0000gn/T//ccWpQNbm.debug.temp.o
LOAD /var/folders/yg/3nxcpv294hvfwgl_w3cbnbrh0000gn/T//cc7reZA1.debug.temp.o
LOAD /var/folders/yg/3nxcpv294hvfwgl_w3cbnbrh0000gn/T//ccPhqrTt.debug.temp.o
LOAD /var/folders/yg/3nxcpv294hvfwgl_w3cbnbrh0000gn/T//ccmcEBBm.debug.temp.o
LOAD /var/folders/yg/3nxcpv294hvfwgl_w3cbnbrh0000gn/T//ccwiXVqR.debug.temp.o
LOAD /var/folders/yg/3nxcpv294hvfwgl_w3cbnbrh0000gn/T//ccyg6n8a.debug.temp.o
LOAD /var/folders/yg/3nxcpv294hvfwgl_w3cbnbrh0000gn/T//ccVnyM8M.debug.temp.o
LOAD /var/folders/yg/3nxcpv294hvfwgl_w3cbnbrh0000gn/T//cca1IPIp.debug.temp.o
LOAD /var/folders/yg/3nxcpv294hvfwgl_w3cbnbrh0000gn/T//ccX1xGxm.debug.temp.o
LOAD /var/folders/yg/3nxcpv294hvfwgl_w3cbnbrh0000gn/T//cc3UofA7.debug.temp.o
LOAD /var/folders/yg/3nxcpv294hvfwgl_w3cbnbrh0000gn/T//ccVq3MXJ.debug.temp.o
LOAD /var/folders/yg/3nxcpv294hvfwgl_w3cbnbrh0000gn/T//ccfwoRTi.debug.temp.o
LOAD /var/folders/yg/3nxcpv294hvfwgl_w3cbnbrh0000gn/T//ccELGOWK.debug.temp.o
LOAD /var/folders/yg/3nxcpv294hvfwgl_w3cbnbrh0000gn/T//ccmQFuwB.debug.temp.o
LOAD /var/folders/yg/3nxcpv294hvfwgl_w3cbnbrh0000gn/T//cc1cQscI.debug.temp.o
LOAD /var/folders/yg/3nxcpv294hvfwgl_w3cbnbrh0000gn/T//cc4Di5Oo.debug.temp.o
LOAD /var/folders/yg/3nxcpv294hvfwgl_w3cbnbrh0000gn/T//ccoOqWUS.debug.temp.o
LOAD /var/folders/yg/3nxcpv294hvfwgl_w3cbnbrh0000gn/T//cc6STcVk.debug.temp.o
LOAD /var/folders/yg/3nxcpv294hvfwgl_w3cbnbrh0000gn/T//cce7fzph.debug.temp.o
LOAD /var/folders/yg/3nxcpv294hvfwgl_w3cbnbrh0000gn/T//ccin0BHY.debug.temp.o
LOAD ./build/obj/hal.o
LOAD ./build/obj/hal_st.o
LOAD ./build/obj/hal_buffers.o
LOAD ./build/obj/hal_queues.o
LOAD ./build/obj/hal_flash.o
LOAD ./build/obj/hal_mmcsd.o
LOAD ./build/obj/hal_pal.o
LOAD ./build/obj/hal_sdc.o
LOAD ./build/obj/hal_serial_usb.o
LOAD ./build/obj/hal_usb.o
LOAD ./build/obj/nvic.o
LOAD ./build/obj/stm32_isr.o
LOAD ./build/obj/hal_lld.o
LOAD ./build/obj/hal_efl_lld.o
LOAD ./build/obj/stm32_dma.o
LOAD ./build/obj/hal_pal_lld.o
LOAD ./build/obj/hal_sdc_lld.o
LOAD ./build/obj/hal_st_lld.o
LOAD ./build/obj/hal_usb_lld.o
LOAD ./build/obj/board.o
LOAD ./build/obj/osal.o
LOAD ./build/obj/chsys.o
LOAD ./build/obj/chrfcu.o
LOAD ./build/obj/chdebug.o
LOAD ./build/obj/chtrace.o
LOAD ./build/obj/chvt.o
LOAD ./build/obj/chschd.o
LOAD ./build/obj/chinstances.o
LOAD ./build/obj/chthreads.o
LOAD ./build/obj/chtm.o
LOAD ./build/obj/chregistry.o
LOAD ./build/obj/chsem.o
LOAD ./build/obj/chmtx.o
LOAD ./build/obj/chcond.o
LOAD ./build/obj/chevents.o
LOAD ./build/obj/chmsg.o
LOAD ./build/obj/chdynamic.o
LOAD ./build/obj/chmboxes.o
LOAD ./build/obj/chmemcore.o
LOAD ./build/obj/chmemheaps.o
LOAD ./build/obj/chmempools.o
LOAD ./build/obj/chpipes.o
LOAD ./build/obj/chobjcaches.o
LOAD ./build/obj/chdelegates.o
LOAD ./build/obj/chfactory.o
LOAD ./build/obj/chcore.o
LOAD ./build/obj/usbcfg.o
LOAD ./build/obj/chprintf.o
LOAD ./build/obj/chscanf.o
LOAD ./build/obj/memstreams.o
LOAD ./build/obj/nullstreams.o
LOAD ./build/obj/bufstreams.o
LOAD ./build/obj/shell.o
LOAD ./build/obj/shell_cmd.o
LOAD ./build/obj/fatfs_diskio.o
LOAD ./build/obj/fatfs_syscall.o
LOAD ./build/obj/ff.o
LOAD ./build/obj/ffunicode.o
LOAD ./build/obj/ch_test.o
LOAD ./build/obj/ch_test_printf.o
LOAD ./build/obj/rt_test_root.o
LOAD ./build/obj/rt_test_sequence_001.o
LOAD ./build/obj/rt_test_sequence_002.o
LOAD ./build/obj/rt_test_sequence_003.o
LOAD ./build/obj/rt_test_sequence_004.o
LOAD ./build/obj/rt_test_sequence_005.o
LOAD ./build/obj/rt_test_sequence_006.o
LOAD ./build/obj/rt_test_sequence_007.o
LOAD ./build/obj/rt_test_sequence_008.o
LOAD ./build/obj/rt_test_sequence_009.o
LOAD ./build/obj/rt_test_sequence_010.o
LOAD ./build/obj/rt_test_sequence_011.o
LOAD ./build/obj/rt_test_sequence_012.o
LOAD ./build/obj/oslib_test_root.o
LOAD ./build/obj/oslib_test_sequence_001.o
LOAD ./build/obj/oslib_test_sequence_002.o
LOAD ./build/obj/oslib_test_sequence_003.o
LOAD ./build/obj/oslib_test_sequence_004.o
LOAD ./build/obj/oslib_test_sequence_005.o
LOAD ./build/obj/oslib_test_sequence_006.o
LOAD ./build/obj/oslib_test_sequence_007.o
LOAD ./build/obj/oslib_test_sequence_008.o
LOAD ./build/obj/oslib_test_sequence_009.o
LOAD ./build/obj/main.o

.mstack         0x0000000020000000      0x400
                0x0000000020000000                . = ALIGN (0x8)
                0x0000000020000000                __main_stack_base__ = .
                0x0000000020000400                . = (. + __main_stack_size__)
 *fill*         0x0000000020000000      0x400 
                0x0000000020000400                . = ALIGN (0x8)
                0x0000000020000400                __main_stack_end__ = .

.pstack         0x0000000020000400      0x400
                0x0000000020000400                . = ALIGN (0x8)
                0x0000000020000400                __process_stack_base__ = .
                0x0000000020000400                __main_thread_stack_base__ = .
                0x0000000020000800                . = (. + __process_stack_size__)
 *fill*         0x0000000020000400      0x400 
                0x0000000020000800                . = ALIGN (0x8)
                0x0000000020000800                __process_stack_end__ = .
                0x0000000020000800                __main_thread_stack_end__ = .

.vectors        0x0000000008000000      0x160
 *(.vectors)
 .vectors       0x0000000008000000      0x160 ./build/obj/vectors.o
                0x0000000008000000                _vectors

.xtors          0x0000000008000160        0x0
                0x0000000008000160                __init_array_base__ = .
 *(SORT_BY_NAME(.init_array.*))
 *(.init_array)
                0x0000000008000160                __init_array_end__ = .
                0x0000000008000160                __fini_array_base__ = .
 *(.fini_array)
 *(SORT_BY_NAME(.fini_array.*))
                0x0000000008000160                __fini_array_end__ = .

.text           0x0000000008000160     0xfd30
                0x0000000008000160                __text_base__ = .
 *(.text)
 .text          0x0000000008000160       0xd8 ./build/obj/crt0_v7m.o
                0x0000000008000160                _crt0_entry
 .text          0x0000000008000238        0x8 ./build/obj/vectors.o
                0x0000000008000238                Reset_Handler
                0x000000000800023a                VectorE8
                0x000000000800023a                Vector9C
                0x000000000800023a                VectorAC
                0x000000000800023a                DebugMon_Handler
                0x000000000800023a                Vector5C
                0x000000000800023a                Vector11C
                0x000000000800023a                HardFault_Handler
                0x000000000800023a                Vector8C
                0x000000000800023a                SysTick_Handler
                0x000000000800023a                VectorDC
                0x000000000800023a                PendSV_Handler
                0x000000000800023a                NMI_Handler
                0x000000000800023a                Vector110
                0x000000000800023a                VectorC8
                0x000000000800023a                Vector94
                0x000000000800023a                VectorA8
                0x000000000800023a                VectorB4
                0x000000000800023a                UsageFault_Handler
                0x000000000800023a                VectorEC
                0x000000000800023a                Vector40
                0x000000000800023a                VectorF8
                0x000000000800023a                Vector108
                0x000000000800023a                VectorBC
                0x000000000800023a                Vector150
                0x000000000800023a                Vector148
                0x000000000800023a                Vector118
                0x000000000800023a                Vector64
                0x000000000800023a                VectorCC
                0x000000000800023a                Vector54
                0x000000000800023a                Vector98
                0x000000000800023a                VectorD8
                0x000000000800023a                Vector138
                0x000000000800023a                Vector24
                0x000000000800023a                SecureFault_Handler
                0x000000000800023a                VectorD0
                0x000000000800023a                Vector140
                0x000000000800023a                VectorE4
                0x000000000800023a                VectorC0
                0x000000000800023a                Vector158
                0x000000000800023a                Vector134
                0x000000000800023a                VectorF0
                0x000000000800023a                Vector13C
                0x000000000800023a                Vector100
                0x000000000800023a                VectorE0
                0x000000000800023a                VectorF4
                0x000000000800023a                MemManage_Handler
                0x000000000800023a                VectorA0
                0x000000000800023a                VectorC4
                0x000000000800023a                Vector114
                0x000000000800023a                Vector60
                0x000000000800023a                Vector48
                0x000000000800023a                VectorD4
                0x000000000800023a                Vector4C
                0x000000000800023a                Vector144
                0x000000000800023a                Vector15C
                0x000000000800023a                Vector68
                0x000000000800023a                Vector20
                0x000000000800023a                Vector58
                0x000000000800023a                Vector88
                0x000000000800023a                Vector10C
                0x000000000800023a                Vector14C
                0x000000000800023a                BusFault_Handler
                0x000000000800023a                Vector50
                0x000000000800023a                Vector154
                0x000000000800023a                Vector44
                0x000000000800023a                Vector28
                0x000000000800023a                VectorB8
                0x000000000800023a                VectorFC
                0x000000000800023a                Vector34
                0x000000000800023a                VectorA4
                0x000000000800023e                _unhandled_exception
 .text          0x0000000008000240       0x2a ./build/obj/chcoreasm.o
                0x0000000008000240                __port_switch
                0x0000000008000250                __port_thread_start
                0x0000000008000262                __port_switch_from_isr
                0x0000000008000266                __port_exit_from_isr
 *fill*         0x000000000800026a        0x2 
 .text          0x000000000800026c       0xec /usr/local/Caskroom/gcc-arm-embedded/10-2020-q4-major/gcc-arm-none-eabi-10-2020-q4-major/bin/../lib/gcc/arm-none-eabi/10.2.1/../../../../arm-none-eabi/lib/thumb/v7-m/nofp/libg.a(lib_a-memcpy.o)
                0x000000000800026c                memcpy
 .text          0x0000000008000358      0x1bc /usr/local/Caskroom/gcc-arm-embedded/10-2020-q4-major/gcc-arm-none-eabi-10-2020-q4-major/bin/../lib/gcc/arm-none-eabi/10.2.1/../../../../arm-none-eabi/lib/thumb/v7-m/nofp/libg.a(lib_a-strcmp.o)
                0x0000000008000358                strcmp
 *(.text.*)
 *fill*         0x0000000008000514        0xc 
 .text._mmcsd_get_capacity
                0x0000000008000520       0x48 /var/folders/yg/3nxcpv294hvfwgl_w3cbnbrh0000gn/T//ch.elf.rjwPRd.ltrans0.ltrans.o
 *fill*         0x0000000008000568        0x8 
 .text.sdcSync  0x0000000008000570        0xc /var/folders/yg/3nxcpv294hvfwgl_w3cbnbrh0000gn/T//ch.elf.rjwPRd.ltrans0.ltrans.o
                0x0000000008000570                sdcSync
 *fill*         0x000000000800057c        0x4 
 .text.sdcGetInfo
                0x0000000008000580       0x18 /var/folders/yg/3nxcpv294hvfwgl_w3cbnbrh0000gn/T//ch.elf.rjwPRd.ltrans0.ltrans.o
                0x0000000008000580                sdcGetInfo
 *fill*         0x0000000008000598        0x8 
 .text._ctl.lto_priv.0
                0x00000000080005a0        0x4 /var/folders/yg/3nxcpv294hvfwgl_w3cbnbrh0000gn/T//ch.elf.rjwPRd.ltrans0.ltrans.o
                0x00000000080005a0                _ctl.lto_priv.0
 *fill*         0x00000000080005a4        0xc 
 .text.sduRequestsHook
                0x00000000080005b0       0x48 /var/folders/yg/3nxcpv294hvfwgl_w3cbnbrh0000gn/T//ch.elf.rjwPRd.ltrans0.ltrans.o
                0x00000000080005b0                sduRequestsHook
 *fill*         0x00000000080005f8        0x8 
 .text.sduInterruptTransmitted
                0x0000000008000600        0x4 /var/folders/yg/3nxcpv294hvfwgl_w3cbnbrh0000gn/T//ch.elf.rjwPRd.ltrans0.ltrans.o
 *fill*         0x0000000008000604        0xc 
 .text.set_address
                0x0000000008000610       0x28 /var/folders/yg/3nxcpv294hvfwgl_w3cbnbrh0000gn/T//ch.elf.rjwPRd.ltrans0.ltrans.o
 *fill*         0x0000000008000638        0x8 
 .text.usbStartTransmitI
                0x0000000008000640       0x94 /var/folders/yg/3nxcpv294hvfwgl_w3cbnbrh0000gn/T//ch.elf.rjwPRd.ltrans0.ltrans.o
 *fill*         0x00000000080006d4        0xc 
 .text.obnotify.lto_priv.0
                0x00000000080006e0       0x4c /var/folders/yg/3nxcpv294hvfwgl_w3cbnbrh0000gn/T//ch.elf.rjwPRd.ltrans0.ltrans.o
                0x00000000080006e0                obnotify.lto_priv.0
 *fill*         0x000000000800072c        0x4 
 .text._usb_ep0out
                0x0000000008000730       0x9c /var/folders/yg/3nxcpv294hvfwgl_w3cbnbrh0000gn/T//ch.elf.rjwPRd.ltrans0.ltrans.o
                0x0000000008000730                _usb_ep0out
 *fill*         0x00000000080007cc        0x4 
 .text.sdc_lld_collect_errors
                0x00000000080007d0       0x3c /var/folders/yg/3nxcpv294hvfwgl_w3cbnbrh0000gn/T//ch.elf.rjwPRd.ltrans0.ltrans.o
 *fill*         0x000000000800080c        0x4 
 .text.sdc_lld_error_cleanup
                0x0000000008000810       0x84 /var/folders/yg/3nxcpv294hvfwgl_w3cbnbrh0000gn/T//ch.elf.rjwPRd.ltrans0.ltrans.o
 *fill*         0x0000000008000894        0xc 
 .text.sdc_lld_is_card_inserted
                0x00000000080008a0       0x14 /var/folders/yg/3nxcpv294hvfwgl_w3cbnbrh0000gn/T//ch.elf.rjwPRd.ltrans0.ltrans.o
                0x00000000080008a0                sdc_lld_is_card_inserted
 *fill*         0x00000000080008b4        0xc 
 .text.__idle_thread.lto_priv.0
                0x00000000080008c0        0x4 /var/folders/yg/3nxcpv294hvfwgl_w3cbnbrh0000gn/T//ch.elf.rjwPRd.ltrans0.ltrans.o
                0x00000000080008c0                __idle_thread.lto_priv.0
 *fill*         0x00000000080008c4        0xc 
 .text.chCoreAllocFromTop
                0x00000000080008d0       0x3c /var/folders/yg/3nxcpv294hvfwgl_w3cbnbrh0000gn/T//ch.elf.rjwPRd.ltrans0.ltrans.o
                0x00000000080008d0                chCoreAllocFromTop
 *fill*         0x000000000800090c        0x4 
 .text.__ch_delegate_fn0
                0x0000000008000910        0xc /var/folders/yg/3nxcpv294hvfwgl_w3cbnbrh0000gn/T//ch.elf.rjwPRd.ltrans0.ltrans.o
                0x0000000008000910                __ch_delegate_fn0
 *fill*         0x000000000800091c        0x4 
 .text.__ch_delegate_fn1
                0x0000000008000920       0x14 /var/folders/yg/3nxcpv294hvfwgl_w3cbnbrh0000gn/T//ch.elf.rjwPRd.ltrans0.ltrans.o
                0x0000000008000920                __ch_delegate_fn1
 *fill*         0x0000000008000934        0xc 
 .text.__ch_delegate_fn2
                0x0000000008000940       0x1c /var/folders/yg/3nxcpv294hvfwgl_w3cbnbrh0000gn/T//ch.elf.rjwPRd.ltrans0.ltrans.o
                0x0000000008000940                __ch_delegate_fn2
 *fill*         0x000000000800095c        0x4 
 .text.__ch_delegate_fn3
                0x0000000008000960       0x20 /var/folders/yg/3nxcpv294hvfwgl_w3cbnbrh0000gn/T//ch.elf.rjwPRd.ltrans0.ltrans.o
                0x0000000008000960                __ch_delegate_fn3
 .text.__ch_delegate_fn4
                0x0000000008000980       0x24 /var/folders/yg/3nxcpv294hvfwgl_w3cbnbrh0000gn/T//ch.elf.rjwPRd.ltrans0.ltrans.o
                0x0000000008000980                __ch_delegate_fn4
 *fill*         0x00000000080009a4        0xc 
 .text.chCoreAllocAlignedI.lto_priv.0
                0x00000000080009b0       0x20 /var/folders/yg/3nxcpv294hvfwgl_w3cbnbrh0000gn/T//ch.elf.rjwPRd.ltrans0.ltrans.o
                0x00000000080009b0                chCoreAllocAlignedI.lto_priv.0
 .text.get_descriptor.lto_priv.0
                0x00000000080009d0       0x34 /var/folders/yg/3nxcpv294hvfwgl_w3cbnbrh0000gn/T//ch.elf.rjwPRd.ltrans0.ltrans.o
                0x00000000080009d0                get_descriptor.lto_priv.0
 *fill*         0x0000000008000a04        0xc 
 .text.sof_handler.lto_priv.0
                0x0000000008000a10       0xa0 /var/folders/yg/3nxcpv294hvfwgl_w3cbnbrh0000gn/T//ch.elf.rjwPRd.ltrans0.ltrans.o
                0x0000000008000a10                sof_handler.lto_priv.0
 .text.test_stream_putchar
                0x0000000008000ab0       0x18 /var/folders/yg/3nxcpv294hvfwgl_w3cbnbrh0000gn/T//ch.elf.rjwPRd.ltrans0.ltrans.o
 *fill*         0x0000000008000ac8        0x8 
 .text.rt_test_002_001_execute
                0x0000000008000ad0      0x11c /var/folders/yg/3nxcpv294hvfwgl_w3cbnbrh0000gn/T//ch.elf.rjwPRd.ltrans0.ltrans.o
 *fill*         0x0000000008000bec        0x4 
 .text.rt_test_002_003_execute
                0x0000000008000bf0       0x24 /var/folders/yg/3nxcpv294hvfwgl_w3cbnbrh0000gn/T//ch.elf.rjwPRd.ltrans0.ltrans.o
 *fill*         0x0000000008000c14        0xc 
 .text.rt_test_003_001_execute
                0x0000000008000c20       0x1c /var/folders/yg/3nxcpv294hvfwgl_w3cbnbrh0000gn/T//ch.elf.rjwPRd.ltrans0.ltrans.o
 *fill*         0x0000000008000c3c        0x4 
 .text.rt_test_003_002_execute
                0x0000000008000c40        0xc /var/folders/yg/3nxcpv294hvfwgl_w3cbnbrh0000gn/T//ch.elf.rjwPRd.ltrans0.ltrans.o
 *fill*         0x0000000008000c4c        0x4 
 .text.thread   0x0000000008000c50       0x1c /var/folders/yg/3nxcpv294hvfwgl_w3cbnbrh0000gn/T//ch.elf.rjwPRd.ltrans0.ltrans.o
 *fill*         0x0000000008000c6c        0x4 
 .text.rt_test_006_001_setup
                0x0000000008000c70        0xc /var/folders/yg/3nxcpv294hvfwgl_w3cbnbrh0000gn/T//ch.elf.rjwPRd.ltrans0.ltrans.o
 *fill*         0x0000000008000c7c        0x4 
 .text.rt_test_007_001_setup
                0x0000000008000c80       0x10 /var/folders/yg/3nxcpv294hvfwgl_w3cbnbrh0000gn/T//ch.elf.rjwPRd.ltrans0.ltrans.o
 .text.rt_test_007_005_setup
                0x0000000008000c90       0x10 /var/folders/yg/3nxcpv294hvfwgl_w3cbnbrh0000gn/T//ch.elf.rjwPRd.ltrans0.ltrans.o
 .text.rt_test_007_002_setup
                0x0000000008000ca0       0x10 /var/folders/yg/3nxcpv294hvfwgl_w3cbnbrh0000gn/T//ch.elf.rjwPRd.ltrans0.ltrans.o
 .text.rt_test_007_003_setup
                0x0000000008000cb0       0x10 /var/folders/yg/3nxcpv294hvfwgl_w3cbnbrh0000gn/T//ch.elf.rjwPRd.ltrans0.ltrans.o
 .text.rt_test_007_004_setup
                0x0000000008000cc0       0x10 /var/folders/yg/3nxcpv294hvfwgl_w3cbnbrh0000gn/T//ch.elf.rjwPRd.ltrans0.ltrans.o
 .text.rt_test_008_005_setup
                0x0000000008000cd0       0x10 /var/folders/yg/3nxcpv294hvfwgl_w3cbnbrh0000gn/T//ch.elf.rjwPRd.ltrans0.ltrans.o
 .text.rt_test_008_001_setup
                0x0000000008000ce0       0x10 /var/folders/yg/3nxcpv294hvfwgl_w3cbnbrh0000gn/T//ch.elf.rjwPRd.ltrans0.ltrans.o
 .text.rt_test_008_004_setup
                0x0000000008000cf0       0x1c /var/folders/yg/3nxcpv294hvfwgl_w3cbnbrh0000gn/T//ch.elf.rjwPRd.ltrans0.ltrans.o
 *fill*         0x0000000008000d0c        0x4 
 .text.rt_test_008_008_setup
                0x0000000008000d10       0x1c /var/folders/yg/3nxcpv294hvfwgl_w3cbnbrh0000gn/T//ch.elf.rjwPRd.ltrans0.ltrans.o
 *fill*         0x0000000008000d2c        0x4 
 .text.rt_test_008_007_setup
                0x0000000008000d30       0x1c /var/folders/yg/3nxcpv294hvfwgl_w3cbnbrh0000gn/T//ch.elf.rjwPRd.ltrans0.ltrans.o
 *fill*         0x0000000008000d4c        0x4 
 .text.rt_test_008_009_setup
                0x0000000008000d50       0x28 /var/folders/yg/3nxcpv294hvfwgl_w3cbnbrh0000gn/T//ch.elf.rjwPRd.ltrans0.ltrans.o
 *fill*         0x0000000008000d78        0x8 
 .text.h1       0x0000000008000d80       0x1c /var/folders/yg/3nxcpv294hvfwgl_w3cbnbrh0000gn/T//ch.elf.rjwPRd.ltrans0.ltrans.o
 *fill*         0x0000000008000d9c        0x4 
 .text.h2       0x0000000008000da0       0x1c /var/folders/yg/3nxcpv294hvfwgl_w3cbnbrh0000gn/T//ch.elf.rjwPRd.ltrans0.ltrans.o
 *fill*         0x0000000008000dbc        0x4 
 .text.h3       0x0000000008000dc0       0x1c /var/folders/yg/3nxcpv294hvfwgl_w3cbnbrh0000gn/T//ch.elf.rjwPRd.ltrans0.ltrans.o
 *fill*         0x0000000008000ddc        0x4 
 .text.rt_test_010_001_execute
                0x0000000008000de0       0xfc /var/folders/yg/3nxcpv294hvfwgl_w3cbnbrh0000gn/T//ch.elf.rjwPRd.ltrans0.ltrans.o
 *fill*         0x0000000008000edc        0x4 
 .text.rt_test_010_002_setup
                0x0000000008000ee0       0x18 /var/folders/yg/3nxcpv294hvfwgl_w3cbnbrh0000gn/T//ch.elf.rjwPRd.ltrans0.ltrans.o
 *fill*         0x0000000008000ef8        0x8 
 .text.rt_test_010_003_setup
                0x0000000008000f00       0x18 /var/folders/yg/3nxcpv294hvfwgl_w3cbnbrh0000gn/T//ch.elf.rjwPRd.ltrans0.ltrans.o
 *fill*         0x0000000008000f18        0x8 
 .text.rt_test_010_004_setup
                0x0000000008000f20       0x18 /var/folders/yg/3nxcpv294hvfwgl_w3cbnbrh0000gn/T//ch.elf.rjwPRd.ltrans0.ltrans.o
 *fill*         0x0000000008000f38        0x8 
 .text.rt_test_010_005_setup
                0x0000000008000f40       0x18 /var/folders/yg/3nxcpv294hvfwgl_w3cbnbrh0000gn/T//ch.elf.rjwPRd.ltrans0.ltrans.o
 *fill*         0x0000000008000f58        0x8 
 .text.rt_test_010_006_setup
                0x0000000008000f60       0x18 /var/folders/yg/3nxcpv294hvfwgl_w3cbnbrh0000gn/T//ch.elf.rjwPRd.ltrans0.ltrans.o
 *fill*         0x0000000008000f78        0x8 
 .text.rt_test_010_007_setup
                0x0000000008000f80       0x28 /var/folders/yg/3nxcpv294hvfwgl_w3cbnbrh0000gn/T//ch.elf.rjwPRd.ltrans0.ltrans.o
 *fill*         0x0000000008000fa8        0x8 
 .text.dyn_thread1
                0x0000000008000fb0       0x1c /var/folders/yg/3nxcpv294hvfwgl_w3cbnbrh0000gn/T//ch.elf.rjwPRd.ltrans0.ltrans.o
                0x0000000008000fb0                dyn_thread1.lto_priv.0
 *fill*         0x0000000008000fcc        0x4 
 .text.rt_test_011_001_setup
                0x0000000008000fd0       0x34 /var/folders/yg/3nxcpv294hvfwgl_w3cbnbrh0000gn/T//ch.elf.rjwPRd.ltrans0.ltrans.o
 *fill*         0x0000000008001004        0xc 
 .text.rt_test_011_002_setup
                0x0000000008001010       0x18 /var/folders/yg/3nxcpv294hvfwgl_w3cbnbrh0000gn/T//ch.elf.rjwPRd.ltrans0.ltrans.o
 *fill*         0x0000000008001028        0x8 
 .text.tmo.lto_priv.0
                0x0000000008001030        0x4 /var/folders/yg/3nxcpv294hvfwgl_w3cbnbrh0000gn/T//ch.elf.rjwPRd.ltrans0.ltrans.o
                0x0000000008001030                tmo.lto_priv.0
 *fill*         0x0000000008001034        0xc 
 .text.__sch_wakeup.lto_priv.0
                0x0000000008001040       0x68 /var/folders/yg/3nxcpv294hvfwgl_w3cbnbrh0000gn/T//ch.elf.rjwPRd.ltrans0.ltrans.o
                0x0000000008001040                __sch_wakeup.lto_priv.0
 *fill*         0x00000000080010a8        0x8 
 .text.chMtxUnlockS
                0x00000000080010b0       0x68 /var/folders/yg/3nxcpv294hvfwgl_w3cbnbrh0000gn/T//ch.elf.rjwPRd.ltrans0.ltrans.o
 *fill*         0x0000000008001118        0x8 
 .text.sdc_lld_wait_transaction_end
                0x0000000008001120       0xb8 /var/folders/yg/3nxcpv294hvfwgl_w3cbnbrh0000gn/T//ch.elf.rjwPRd.ltrans0.ltrans.o
 *fill*         0x00000000080011d8        0x8 
 .text.sdc_lld_read_aligned.part.0
                0x00000000080011e0       0xac /var/folders/yg/3nxcpv294hvfwgl_w3cbnbrh0000gn/T//ch.elf.rjwPRd.ltrans0.ltrans.o
 *fill*         0x000000000800128c        0x4 
 .text.sdc_lld_write_aligned.part.0
                0x0000000008001290       0xc4 /var/folders/yg/3nxcpv294hvfwgl_w3cbnbrh0000gn/T//ch.elf.rjwPRd.ltrans0.ltrans.o
 *fill*         0x0000000008001354        0xc 
 .text.chThdYield
                0x0000000008001360       0x50 /var/folders/yg/3nxcpv294hvfwgl_w3cbnbrh0000gn/T//ch.elf.rjwPRd.ltrans0.ltrans.o
 .text.chMsgSend
                0x00000000080013b0       0x70 /var/folders/yg/3nxcpv294hvfwgl_w3cbnbrh0000gn/T//ch.elf.rjwPRd.ltrans0.ltrans.o
 .text.msg_thread1
                0x0000000008001420       0x28 /var/folders/yg/3nxcpv294hvfwgl_w3cbnbrh0000gn/T//ch.elf.rjwPRd.ltrans0.ltrans.o
 *fill*         0x0000000008001448        0x8 
 .text.thread1.lto_priv.1
                0x0000000008001450       0x70 /var/folders/yg/3nxcpv294hvfwgl_w3cbnbrh0000gn/T//ch.elf.rjwPRd.ltrans0.ltrans.o
 .text.bmk_thread3.lto_priv.0
                0x00000000080014c0       0x88 /var/folders/yg/3nxcpv294hvfwgl_w3cbnbrh0000gn/T//ch.elf.rjwPRd.ltrans0.ltrans.o
                0x00000000080014c0                bmk_thread3.lto_priv.0
 *fill*         0x0000000008001548        0x8 
 .text.bmk_thread4.lto_priv.0
                0x0000000008001550       0x3c /var/folders/yg/3nxcpv294hvfwgl_w3cbnbrh0000gn/T//ch.elf.rjwPRd.ltrans0.ltrans.o
                0x0000000008001550                bmk_thread4.lto_priv.0
 *fill*         0x000000000800158c        0x4 
 .text.bmk_thread7.lto_priv.0
                0x0000000008001590       0x6c /var/folders/yg/3nxcpv294hvfwgl_w3cbnbrh0000gn/T//ch.elf.rjwPRd.ltrans0.ltrans.o
                0x0000000008001590                bmk_thread7.lto_priv.0
 *fill*         0x00000000080015fc        0x4 
 .text.bmk_thread8.lto_priv.0
                0x0000000008001600       0x74 /var/folders/yg/3nxcpv294hvfwgl_w3cbnbrh0000gn/T//ch.elf.rjwPRd.ltrans0.ltrans.o
                0x0000000008001600                bmk_thread8.lto_priv.0
 *fill*         0x0000000008001674        0xc 
 .text.parse_arguments
                0x0000000008001680       0x54 /var/folders/yg/3nxcpv294hvfwgl_w3cbnbrh0000gn/T//ch.elf.rjwPRd.ltrans0.ltrans.o
 *fill*         0x00000000080016d4        0xc 
 .text.test_rt  0x00000000080016e0       0x1c /var/folders/yg/3nxcpv294hvfwgl_w3cbnbrh0000gn/T//ch.elf.rjwPRd.ltrans0.ltrans.o
 *fill*         0x00000000080016fc        0x4 
 .text.test_oslib
                0x0000000008001700       0x1c /var/folders/yg/3nxcpv294hvfwgl_w3cbnbrh0000gn/T//ch.elf.rjwPRd.ltrans0.ltrans.o
 *fill*         0x000000000800171c        0x4 
 .text.rt_test_007_001_teardown
                0x0000000008001720        0xc /var/folders/yg/3nxcpv294hvfwgl_w3cbnbrh0000gn/T//ch.elf.rjwPRd.ltrans0.ltrans.o
 *fill*         0x000000000800172c        0x4 
 .text.rt_test_007_005_execute
                0x0000000008001730       0x80 /var/folders/yg/3nxcpv294hvfwgl_w3cbnbrh0000gn/T//ch.elf.rjwPRd.ltrans0.ltrans.o
 .text.__cpu_init
                0x00000000080017b0        0x4 /var/folders/yg/3nxcpv294hvfwgl_w3cbnbrh0000gn/T//ch.elf.rjwPRd.ltrans0.ltrans.o
                0x00000000080017b0                __cpu_init
 *fill*         0x00000000080017b4        0xc 
 .text.__late_init
                0x00000000080017c0        0x4 /var/folders/yg/3nxcpv294hvfwgl_w3cbnbrh0000gn/T//ch.elf.rjwPRd.ltrans0.ltrans.o
                0x00000000080017c0                __late_init
 *fill*         0x00000000080017c4        0xc 
 .text.__default_exit
                0x00000000080017d0        0x4 /var/folders/yg/3nxcpv294hvfwgl_w3cbnbrh0000gn/T//ch.elf.rjwPRd.ltrans0.ltrans.o
                0x00000000080017d0                __default_exit
 *fill*         0x00000000080017d4        0xc 
 .text.__init_ram_areas
                0x00000000080017e0       0x6c /var/folders/yg/3nxcpv294hvfwgl_w3cbnbrh0000gn/T//ch.elf.rjwPRd.ltrans0.ltrans.o
                0x00000000080017e0                __init_ram_areas
 *fill*         0x000000000800184c        0x4 
 .text.sdc_lld_sync
                0x0000000008001850        0x4 /var/folders/yg/3nxcpv294hvfwgl_w3cbnbrh0000gn/T//ch.elf.rjwPRd.ltrans0.ltrans.o
                0x0000000008001850                sdc_lld_sync
                0x0000000008001850                sdc_lld_is_write_protected
 *fill*         0x0000000008001854        0xc 
 .text.usbStartReceiveI
                0x0000000008001860       0x5c /var/folders/yg/3nxcpv294hvfwgl_w3cbnbrh0000gn/T//ch.elf.rjwPRd.ltrans0.ltrans.o
                0x0000000008001860                usbStartReceiveI
 *fill*         0x00000000080018bc        0x4 
 .text.ibnotify.lto_priv.0
                0x00000000080018c0       0x50 /var/folders/yg/3nxcpv294hvfwgl_w3cbnbrh0000gn/T//ch.elf.rjwPRd.ltrans0.ltrans.o
                0x00000000080018c0                ibnotify.lto_priv.0
 .text._usb_ep0setup
                0x0000000008001910      0x3fc /var/folders/yg/3nxcpv294hvfwgl_w3cbnbrh0000gn/T//ch.elf.rjwPRd.ltrans0.ltrans.o
                0x0000000008001910                _usb_ep0setup
 *fill*         0x0000000008001d0c        0x4 
 .text._usb_ep0in
                0x0000000008001d10       0xc8 /var/folders/yg/3nxcpv294hvfwgl_w3cbnbrh0000gn/T//ch.elf.rjwPRd.ltrans0.ltrans.o
                0x0000000008001d10                _usb_ep0in
 *fill*         0x0000000008001dd8        0x8 
 .text.Vector6C
                0x0000000008001de0       0x70 /var/folders/yg/3nxcpv294hvfwgl_w3cbnbrh0000gn/T//ch.elf.rjwPRd.ltrans0.ltrans.o
                0x0000000008001de0                Vector6C
 .text.Vector70
                0x0000000008001e50       0x74 /var/folders/yg/3nxcpv294hvfwgl_w3cbnbrh0000gn/T//ch.elf.rjwPRd.ltrans0.ltrans.o
                0x0000000008001e50                Vector70
 *fill*         0x0000000008001ec4        0xc 
 .text.Vector74
                0x0000000008001ed0       0x74 /var/folders/yg/3nxcpv294hvfwgl_w3cbnbrh0000gn/T//ch.elf.rjwPRd.ltrans0.ltrans.o
                0x0000000008001ed0                Vector74
 *fill*         0x0000000008001f44        0xc 
 .text.Vector78
                0x0000000008001f50       0x74 /var/folders/yg/3nxcpv294hvfwgl_w3cbnbrh0000gn/T//ch.elf.rjwPRd.ltrans0.ltrans.o
                0x0000000008001f50                Vector78
 *fill*         0x0000000008001fc4        0xc 
 .text.Vector7C
                0x0000000008001fd0       0x74 /var/folders/yg/3nxcpv294hvfwgl_w3cbnbrh0000gn/T//ch.elf.rjwPRd.ltrans0.ltrans.o
                0x0000000008001fd0                Vector7C
 *fill*         0x0000000008002044        0xc 
 .text.Vector80
                0x0000000008002050       0x74 /var/folders/yg/3nxcpv294hvfwgl_w3cbnbrh0000gn/T//ch.elf.rjwPRd.ltrans0.ltrans.o
                0x0000000008002050                Vector80
 *fill*         0x00000000080020c4        0xc 
 .text.Vector84
                0x00000000080020d0       0x78 /var/folders/yg/3nxcpv294hvfwgl_w3cbnbrh0000gn/T//ch.elf.rjwPRd.ltrans0.ltrans.o
                0x00000000080020d0                Vector84
 *fill*         0x0000000008002148        0x8 
 .text.Vector120
                0x0000000008002150       0x70 /var/folders/yg/3nxcpv294hvfwgl_w3cbnbrh0000gn/T//ch.elf.rjwPRd.ltrans0.ltrans.o
                0x0000000008002150                Vector120
 .text.Vector124
                0x00000000080021c0       0x74 /var/folders/yg/3nxcpv294hvfwgl_w3cbnbrh0000gn/T//ch.elf.rjwPRd.ltrans0.ltrans.o
                0x00000000080021c0                Vector124
 *fill*         0x0000000008002234        0xc 
 .text.Vector128
                0x0000000008002240       0x74 /var/folders/yg/3nxcpv294hvfwgl_w3cbnbrh0000gn/T//ch.elf.rjwPRd.ltrans0.ltrans.o
                0x0000000008002240                Vector128
 *fill*         0x00000000080022b4        0xc 
 .text.Vector12C
                0x00000000080022c0       0x74 /var/folders/yg/3nxcpv294hvfwgl_w3cbnbrh0000gn/T//ch.elf.rjwPRd.ltrans0.ltrans.o
                0x00000000080022c0                Vector12C
 *fill*         0x0000000008002334        0xc 
 .text.Vector130
                0x0000000008002340       0x74 /var/folders/yg/3nxcpv294hvfwgl_w3cbnbrh0000gn/T//ch.elf.rjwPRd.ltrans0.ltrans.o
                0x0000000008002340                Vector130
 *fill*         0x00000000080023b4        0xc 
 .text.Vector104
                0x00000000080023c0       0x90 /var/folders/yg/3nxcpv294hvfwgl_w3cbnbrh0000gn/T//ch.elf.rjwPRd.ltrans0.ltrans.o
                0x00000000080023c0                Vector104
 .text.VectorB0
                0x0000000008002450      0x194 /var/folders/yg/3nxcpv294hvfwgl_w3cbnbrh0000gn/T//ch.elf.rjwPRd.ltrans0.ltrans.o
                0x0000000008002450                VectorB0
 *fill*         0x00000000080025e4        0xc 
 .text.usb_lld_init_endpoint
                0x00000000080025f0       0xec /var/folders/yg/3nxcpv294hvfwgl_w3cbnbrh0000gn/T//ch.elf.rjwPRd.ltrans0.ltrans.o
                0x00000000080025f0                usb_lld_init_endpoint
 *fill*         0x00000000080026dc        0x4 
 .text.Vector90
                0x00000000080026e0      0x3a0 /var/folders/yg/3nxcpv294hvfwgl_w3cbnbrh0000gn/T//ch.elf.rjwPRd.ltrans0.ltrans.o
                0x00000000080026e0                Vector90
 .text.__early_init
                0x0000000008002a80       0x7c /var/folders/yg/3nxcpv294hvfwgl_w3cbnbrh0000gn/T//ch.elf.rjwPRd.ltrans0.ltrans.o
                0x0000000008002a80                __early_init
 *fill*         0x0000000008002afc        0x4 
 .text.chVTDoResetI
                0x0000000008002b00       0x84 /var/folders/yg/3nxcpv294hvfwgl_w3cbnbrh0000gn/T//ch.elf.rjwPRd.ltrans0.ltrans.o
                0x0000000008002b00                chVTDoResetI
 *fill*         0x0000000008002b84        0xc 
 .text.chSchGoSleepTimeoutS
                0x0000000008002b90       0x7c /var/folders/yg/3nxcpv294hvfwgl_w3cbnbrh0000gn/T//ch.elf.rjwPRd.ltrans0.ltrans.o
                0x0000000008002b90                chSchGoSleepTimeoutS
 *fill*         0x0000000008002c0c        0x4 
 .text.obqPutTimeout
                0x0000000008002c10       0xa4 /var/folders/yg/3nxcpv294hvfwgl_w3cbnbrh0000gn/T//ch.elf.rjwPRd.ltrans0.ltrans.o
 *fill*         0x0000000008002cb4        0xc 
 .text._put.lto_priv.0
                0x0000000008002cc0        0xc /var/folders/yg/3nxcpv294hvfwgl_w3cbnbrh0000gn/T//ch.elf.rjwPRd.ltrans0.ltrans.o
                0x0000000008002cc0                _put.lto_priv.0
 *fill*         0x0000000008002ccc        0x4 
 .text._putt.lto_priv.0
                0x0000000008002cd0        0x8 /var/folders/yg/3nxcpv294hvfwgl_w3cbnbrh0000gn/T//ch.elf.rjwPRd.ltrans0.ltrans.o
                0x0000000008002cd0                _putt.lto_priv.0
 *fill*         0x0000000008002cd8        0x8 
 .text.ibqGetTimeout
                0x0000000008002ce0       0xa4 /var/folders/yg/3nxcpv294hvfwgl_w3cbnbrh0000gn/T//ch.elf.rjwPRd.ltrans0.ltrans.o
 *fill*         0x0000000008002d84        0xc 
 .text._get.lto_priv.0
                0x0000000008002d90        0xc /var/folders/yg/3nxcpv294hvfwgl_w3cbnbrh0000gn/T//ch.elf.rjwPRd.ltrans0.ltrans.o
                0x0000000008002d90                _get.lto_priv.0
 *fill*         0x0000000008002d9c        0x4 
 .text._gett.lto_priv.0
                0x0000000008002da0        0x8 /var/folders/yg/3nxcpv294hvfwgl_w3cbnbrh0000gn/T//ch.elf.rjwPRd.ltrans0.ltrans.o
                0x0000000008002da0                _gett.lto_priv.0
 *fill*         0x0000000008002da8        0x8 
 .text.ibqReadTimeout
                0x0000000008002db0      0x134 /var/folders/yg/3nxcpv294hvfwgl_w3cbnbrh0000gn/T//ch.elf.rjwPRd.ltrans0.ltrans.o
 *fill*         0x0000000008002ee4        0xc 
 .text._read.lto_priv.0
                0x0000000008002ef0        0xc /var/folders/yg/3nxcpv294hvfwgl_w3cbnbrh0000gn/T//ch.elf.rjwPRd.ltrans0.ltrans.o
                0x0000000008002ef0                _read.lto_priv.0
 *fill*         0x0000000008002efc        0x4 
 .text._readt.lto_priv.0
                0x0000000008002f00        0x8 /var/folders/yg/3nxcpv294hvfwgl_w3cbnbrh0000gn/T//ch.elf.rjwPRd.ltrans0.ltrans.o
                0x0000000008002f00                _readt.lto_priv.0
 *fill*         0x0000000008002f08        0x8 
 .text.obqWriteTimeout
                0x0000000008002f10      0x10c /var/folders/yg/3nxcpv294hvfwgl_w3cbnbrh0000gn/T//ch.elf.rjwPRd.ltrans0.ltrans.o
 *fill*         0x000000000800301c        0x4 
 .text._write.lto_priv.0
                0x0000000008003020        0xc /var/folders/yg/3nxcpv294hvfwgl_w3cbnbrh0000gn/T//ch.elf.rjwPRd.ltrans0.ltrans.o
                0x0000000008003020                _write.lto_priv.0
 *fill*         0x000000000800302c        0x4 
 .text._writet.lto_priv.0
                0x0000000008003030        0x8 /var/folders/yg/3nxcpv294hvfwgl_w3cbnbrh0000gn/T//ch.elf.rjwPRd.ltrans0.ltrans.o
                0x0000000008003030                _writet.lto_priv.0
 *fill*         0x0000000008003038        0x8 
 .text._sdc_wait_for_transfer_state
                0x0000000008003040       0x6c /var/folders/yg/3nxcpv294hvfwgl_w3cbnbrh0000gn/T//ch.elf.rjwPRd.ltrans0.ltrans.o
                0x0000000008003040                _sdc_wait_for_transfer_state
 *fill*         0x00000000080030ac        0x4 
 .text.sdcDisconnect
                0x00000000080030b0       0x3c /var/folders/yg/3nxcpv294hvfwgl_w3cbnbrh0000gn/T//ch.elf.rjwPRd.ltrans0.ltrans.o
                0x00000000080030b0                sdcDisconnect
 *fill*         0x00000000080030ec        0x4 
 .text.sdcRead  0x00000000080030f0       0xa8 /var/folders/yg/3nxcpv294hvfwgl_w3cbnbrh0000gn/T//ch.elf.rjwPRd.ltrans0.ltrans.o
                0x00000000080030f0                sdcRead
 *fill*         0x0000000008003198        0x8 
 .text.sdcWrite
                0x00000000080031a0       0xb0 /var/folders/yg/3nxcpv294hvfwgl_w3cbnbrh0000gn/T//ch.elf.rjwPRd.ltrans0.ltrans.o
                0x00000000080031a0                sdcWrite
 .text.sdc_lld_read_special
                0x0000000008003250       0xd0 /var/folders/yg/3nxcpv294hvfwgl_w3cbnbrh0000gn/T//ch.elf.rjwPRd.ltrans0.ltrans.o
 .text.rt_test_004_001_execute
                0x0000000008003320       0xa8 /var/folders/yg/3nxcpv294hvfwgl_w3cbnbrh0000gn/T//ch.elf.rjwPRd.ltrans0.ltrans.o
 *fill*         0x00000000080033c8        0x8 
 .text.rt_test_005_001_execute
                0x00000000080033d0       0xf0 /var/folders/yg/3nxcpv294hvfwgl_w3cbnbrh0000gn/T//ch.elf.rjwPRd.ltrans0.ltrans.o
 .text.rt_test_010_006_execute
                0x00000000080034c0       0xf0 /var/folders/yg/3nxcpv294hvfwgl_w3cbnbrh0000gn/T//ch.elf.rjwPRd.ltrans0.ltrans.o
 .text.msg_loop_test
                0x00000000080035b0       0xb8 /var/folders/yg/3nxcpv294hvfwgl_w3cbnbrh0000gn/T//ch.elf.rjwPRd.ltrans0.ltrans.o
 *fill*         0x0000000008003668        0x8 
 .text.sdcConnect
                0x0000000008003670      0x4cc /var/folders/yg/3nxcpv294hvfwgl_w3cbnbrh0000gn/T//ch.elf.rjwPRd.ltrans0.ltrans.o
                0x0000000008003670                sdcConnect
 *fill*         0x0000000008003b3c        0x4 
 .text.test_wait_tick
                0x0000000008003b40       0x74 /var/folders/yg/3nxcpv294hvfwgl_w3cbnbrh0000gn/T//ch.elf.rjwPRd.ltrans0.ltrans.o
                0x0000000008003b40                test_wait_tick
 *fill*         0x0000000008003bb4        0xc 
 .text.__sch_reschedule_ahead.lto_priv.0
                0x0000000008003bc0       0x40 /var/folders/yg/3nxcpv294hvfwgl_w3cbnbrh0000gn/T//ch.elf.rjwPRd.ltrans0.ltrans.o
                0x0000000008003bc0                chSchDoPreemption
                0x0000000008003bc0                __sch_reschedule_ahead.lto_priv.0
 .text.vtcb     0x0000000008003c00       0x50 /var/folders/yg/3nxcpv294hvfwgl_w3cbnbrh0000gn/T//ch.elf.rjwPRd.ltrans0.ltrans.o
 .text.rt_test_002_002_execute
                0x0000000008003c50      0x13c /var/folders/yg/3nxcpv294hvfwgl_w3cbnbrh0000gn/T//ch.elf.rjwPRd.ltrans0.ltrans.o
 *fill*         0x0000000008003d8c        0x4 
 .text.rt_test_005_003_execute
                0x0000000008003d90       0xbc /var/folders/yg/3nxcpv294hvfwgl_w3cbnbrh0000gn/T//ch.elf.rjwPRd.ltrans0.ltrans.o
 *fill*         0x0000000008003e4c        0x4 
 .text.rt_test_005_004_execute
                0x0000000008003e50      0x108 /var/folders/yg/3nxcpv294hvfwgl_w3cbnbrh0000gn/T//ch.elf.rjwPRd.ltrans0.ltrans.o
 *fill*         0x0000000008003f58        0x8 
 .text.thread1.lto_priv.0
                0x0000000008003f60       0x6c /var/folders/yg/3nxcpv294hvfwgl_w3cbnbrh0000gn/T//ch.elf.rjwPRd.ltrans0.ltrans.o
 *fill*         0x0000000008003fcc        0x4 
 .text.thread2  0x0000000008003fd0       0x70 /var/folders/yg/3nxcpv294hvfwgl_w3cbnbrh0000gn/T//ch.elf.rjwPRd.ltrans0.ltrans.o
 .text.evt_thread3
                0x0000000008004040       0x80 /var/folders/yg/3nxcpv294hvfwgl_w3cbnbrh0000gn/T//ch.elf.rjwPRd.ltrans0.ltrans.o
 .text.chSchWakeupS
                0x00000000080040c0       0x5c /var/folders/yg/3nxcpv294hvfwgl_w3cbnbrh0000gn/T//ch.elf.rjwPRd.ltrans0.ltrans.o
                0x00000000080040c0                chSchWakeupS
 *fill*         0x000000000800411c        0x4 
 .text.rt_test_007_001_execute
                0x0000000008004120      0x110 /var/folders/yg/3nxcpv294hvfwgl_w3cbnbrh0000gn/T//ch.elf.rjwPRd.ltrans0.ltrans.o
 .text.thread3  0x0000000008004230       0x7c /var/folders/yg/3nxcpv294hvfwgl_w3cbnbrh0000gn/T//ch.elf.rjwPRd.ltrans0.ltrans.o
 *fill*         0x00000000080042ac        0x4 
 .text.bmk_thread1
                0x00000000080042b0       0x6c /var/folders/yg/3nxcpv294hvfwgl_w3cbnbrh0000gn/T//ch.elf.rjwPRd.ltrans0.ltrans.o
 *fill*         0x000000000800431c        0x4 
 .text.chThdCreateSuspendedI
                0x0000000008004320       0x8c /var/folders/yg/3nxcpv294hvfwgl_w3cbnbrh0000gn/T//ch.elf.rjwPRd.ltrans0.ltrans.o
                0x0000000008004320                chThdCreateSuspendedI
 *fill*         0x00000000080043ac        0x4 
 .text.chThdExit
                0x00000000080043b0       0x88 /var/folders/yg/3nxcpv294hvfwgl_w3cbnbrh0000gn/T//ch.elf.rjwPRd.ltrans0.ltrans.o
                0x00000000080043b0                chThdExit
 *fill*         0x0000000008004438        0x8 
 .text.chThdExitS
                0x0000000008004440       0x80 /var/folders/yg/3nxcpv294hvfwgl_w3cbnbrh0000gn/T//ch.elf.rjwPRd.ltrans0.ltrans.o
                0x0000000008004440                chThdExitS
 .text.chTMStartMeasurementX
                0x00000000080044c0        0xc /var/folders/yg/3nxcpv294hvfwgl_w3cbnbrh0000gn/T//ch.elf.rjwPRd.ltrans0.ltrans.o
                0x00000000080044c0                chTMStartMeasurementX
 *fill*         0x00000000080044cc        0x4 
 .text.chTMStopMeasurementX
                0x00000000080044d0       0x44 /var/folders/yg/3nxcpv294hvfwgl_w3cbnbrh0000gn/T//ch.elf.rjwPRd.ltrans0.ltrans.o
                0x00000000080044d0                chTMStopMeasurementX
 *fill*         0x0000000008004514        0xc 
 .text.chSemSignalI
                0x0000000008004520       0x38 /var/folders/yg/3nxcpv294hvfwgl_w3cbnbrh0000gn/T//ch.elf.rjwPRd.ltrans0.ltrans.o
                0x0000000008004520                chSemSignalI
 *fill*         0x0000000008004558        0x8 
 .text.thread4  0x0000000008004560       0x34 /var/folders/yg/3nxcpv294hvfwgl_w3cbnbrh0000gn/T//ch.elf.rjwPRd.ltrans0.ltrans.o
 *fill*         0x0000000008004594        0xc 
 .text.rt_test_007_006_execute
                0x00000000080045a0      0x210 /var/folders/yg/3nxcpv294hvfwgl_w3cbnbrh0000gn/T//ch.elf.rjwPRd.ltrans0.ltrans.o
 .text.chMtxLockS
                0x00000000080047b0       0xe0 /var/folders/yg/3nxcpv294hvfwgl_w3cbnbrh0000gn/T//ch.elf.rjwPRd.ltrans0.ltrans.o
                0x00000000080047b0                chMtxLockS
 .text.thread4B
                0x0000000008004890       0x4c /var/folders/yg/3nxcpv294hvfwgl_w3cbnbrh0000gn/T//ch.elf.rjwPRd.ltrans0.ltrans.o
 *fill*         0x00000000080048dc        0x4 
 .text.chMtxUnlock
                0x00000000080048e0       0x84 /var/folders/yg/3nxcpv294hvfwgl_w3cbnbrh0000gn/T//ch.elf.rjwPRd.ltrans0.ltrans.o
                0x00000000080048e0                chMtxUnlock
 *fill*         0x0000000008004964        0xc 
 .text.thread1.lto_priv.2
                0x0000000008004970       0x3c /var/folders/yg/3nxcpv294hvfwgl_w3cbnbrh0000gn/T//ch.elf.rjwPRd.ltrans0.ltrans.o
 *fill*         0x00000000080049ac        0x4 
 .text.thread4A
                0x00000000080049b0       0x7c /var/folders/yg/3nxcpv294hvfwgl_w3cbnbrh0000gn/T//ch.elf.rjwPRd.ltrans0.ltrans.o
 *fill*         0x0000000008004a2c        0x4 
 .text.thread6  0x0000000008004a30       0xa0 /var/folders/yg/3nxcpv294hvfwgl_w3cbnbrh0000gn/T//ch.elf.rjwPRd.ltrans0.ltrans.o
 .text.thread8  0x0000000008004ad0       0xc0 /var/folders/yg/3nxcpv294hvfwgl_w3cbnbrh0000gn/T//ch.elf.rjwPRd.ltrans0.ltrans.o
 .text.thread9  0x0000000008004b90       0x3c /var/folders/yg/3nxcpv294hvfwgl_w3cbnbrh0000gn/T//ch.elf.rjwPRd.ltrans0.ltrans.o
 *fill*         0x0000000008004bcc        0x4 
 .text.rt_test_008_004_execute
                0x0000000008004bd0      0x10c /var/folders/yg/3nxcpv294hvfwgl_w3cbnbrh0000gn/T//ch.elf.rjwPRd.ltrans0.ltrans.o
 *fill*         0x0000000008004cdc        0x4 
 .text.rt_test_008_005_execute
                0x0000000008004ce0      0x190 /var/folders/yg/3nxcpv294hvfwgl_w3cbnbrh0000gn/T//ch.elf.rjwPRd.ltrans0.ltrans.o
 .text.chEvtBroadcastFlagsI
                0x0000000008004e70       0x74 /var/folders/yg/3nxcpv294hvfwgl_w3cbnbrh0000gn/T//ch.elf.rjwPRd.ltrans0.ltrans.o
                0x0000000008004e70                chEvtBroadcastFlagsI
 *fill*         0x0000000008004ee4        0xc 
 .text.sduDataTransmitted
                0x0000000008004ef0       0xc8 /var/folders/yg/3nxcpv294hvfwgl_w3cbnbrh0000gn/T//ch.elf.rjwPRd.ltrans0.ltrans.o
 *fill*         0x0000000008004fb8        0x8 
 .text.sduDataReceived
                0x0000000008004fc0       0x88 /var/folders/yg/3nxcpv294hvfwgl_w3cbnbrh0000gn/T//ch.elf.rjwPRd.ltrans0.ltrans.o
 *fill*         0x0000000008005048        0x8 
 .text.usb_event.lto_priv.0
                0x0000000008005050      0x1d4 /var/folders/yg/3nxcpv294hvfwgl_w3cbnbrh0000gn/T//ch.elf.rjwPRd.ltrans0.ltrans.o
                0x0000000008005050                usb_event.lto_priv.0
 *fill*         0x0000000008005224        0xc 
 .text.evt_thread7
                0x0000000008005230       0x6c /var/folders/yg/3nxcpv294hvfwgl_w3cbnbrh0000gn/T//ch.elf.rjwPRd.ltrans0.ltrans.o
 *fill*         0x000000000800529c        0x4 
 .text.chMBPostTimeout
                0x00000000080052a0       0xc8 /var/folders/yg/3nxcpv294hvfwgl_w3cbnbrh0000gn/T//ch.elf.rjwPRd.ltrans0.ltrans.o
                0x00000000080052a0                chMBPostTimeout
 *fill*         0x0000000008005368        0x8 
 .text.chMBFetchTimeoutS
                0x0000000008005370       0xa4 /var/folders/yg/3nxcpv294hvfwgl_w3cbnbrh0000gn/T//ch.elf.rjwPRd.ltrans0.ltrans.o
                0x0000000008005370                chMBFetchTimeoutS
 *fill*         0x0000000008005414        0xc 
 .text.chHeapAllocAligned
                0x0000000008005420       0xf0 /var/folders/yg/3nxcpv294hvfwgl_w3cbnbrh0000gn/T//ch.elf.rjwPRd.ltrans0.ltrans.o
                0x0000000008005420                chHeapAllocAligned
 .text.chThdCreateFromHeap
                0x0000000008005510       0x4c /var/folders/yg/3nxcpv294hvfwgl_w3cbnbrh0000gn/T//ch.elf.rjwPRd.ltrans0.ltrans.o
                0x0000000008005510                chThdCreateFromHeap
 *fill*         0x000000000800555c        0x4 
 .text.chHeapFree
                0x0000000008005560       0xa0 /var/folders/yg/3nxcpv294hvfwgl_w3cbnbrh0000gn/T//ch.elf.rjwPRd.ltrans0.ltrans.o
                0x0000000008005560                chHeapFree
 .text.chThdRelease.part.0
                0x0000000008005600       0x3c /var/folders/yg/3nxcpv294hvfwgl_w3cbnbrh0000gn/T//ch.elf.rjwPRd.ltrans0.ltrans.o
                0x0000000008005600                chThdRelease.part.0
 *fill*         0x000000000800563c        0x4 
 .text.chThdWait
                0x0000000008005640       0x74 /var/folders/yg/3nxcpv294hvfwgl_w3cbnbrh0000gn/T//ch.elf.rjwPRd.ltrans0.ltrans.o
                0x0000000008005640                chThdWait
 *fill*         0x00000000080056b4        0xc 
 .text.rt_test_010_003_execute
                0x00000000080056c0      0x110 /var/folders/yg/3nxcpv294hvfwgl_w3cbnbrh0000gn/T//ch.elf.rjwPRd.ltrans0.ltrans.o
 .text.rt_test_006_001_execute
                0x00000000080057d0      0x10c /var/folders/yg/3nxcpv294hvfwgl_w3cbnbrh0000gn/T//ch.elf.rjwPRd.ltrans0.ltrans.o
 *fill*         0x00000000080058dc        0x4 
 .text.rt_test_007_005_teardown
                0x00000000080058e0       0x24 /var/folders/yg/3nxcpv294hvfwgl_w3cbnbrh0000gn/T//ch.elf.rjwPRd.ltrans0.ltrans.o
 *fill*         0x0000000008005904        0xc 
 .text.rt_test_007_006_teardown
                0x0000000008005910       0x24 /var/folders/yg/3nxcpv294hvfwgl_w3cbnbrh0000gn/T//ch.elf.rjwPRd.ltrans0.ltrans.o
 *fill*         0x0000000008005934        0xc 
 .text.rt_test_008_004_teardown
                0x0000000008005940       0x24 /var/folders/yg/3nxcpv294hvfwgl_w3cbnbrh0000gn/T//ch.elf.rjwPRd.ltrans0.ltrans.o
 *fill*         0x0000000008005964        0xc 
 .text.rt_test_010_004_execute
                0x0000000008005970      0x174 /var/folders/yg/3nxcpv294hvfwgl_w3cbnbrh0000gn/T//ch.elf.rjwPRd.ltrans0.ltrans.o
 *fill*         0x0000000008005ae4        0xc 
 .text.rt_test_010_005_execute
                0x0000000008005af0      0x168 /var/folders/yg/3nxcpv294hvfwgl_w3cbnbrh0000gn/T//ch.elf.rjwPRd.ltrans0.ltrans.o
 *fill*         0x0000000008005c58        0x8 
 .text.rt_test_010_007_execute
                0x0000000008005c60      0x1ec /var/folders/yg/3nxcpv294hvfwgl_w3cbnbrh0000gn/T//ch.elf.rjwPRd.ltrans0.ltrans.o
 *fill*         0x0000000008005e4c        0x4 
 .text.chHeapStatus
                0x0000000008005e50       0x68 /var/folders/yg/3nxcpv294hvfwgl_w3cbnbrh0000gn/T//ch.elf.rjwPRd.ltrans0.ltrans.o
                0x0000000008005e50                chHeapStatus
 *fill*         0x0000000008005eb8        0x8 
 .text.chGuardedPoolAllocTimeout
                0x0000000008005ec0       0x68 /var/folders/yg/3nxcpv294hvfwgl_w3cbnbrh0000gn/T//ch.elf.rjwPRd.ltrans0.ltrans.o
                0x0000000008005ec0                chGuardedPoolAllocTimeout
 *fill*         0x0000000008005f28        0x8 
 .text.chDelegateCallVeneer
                0x0000000008005f30       0x24 /var/folders/yg/3nxcpv294hvfwgl_w3cbnbrh0000gn/T//ch.elf.rjwPRd.ltrans0.ltrans.o
                0x0000000008005f30                chDelegateCallVeneer
 *fill*         0x0000000008005f54        0xc 
 .text.dyn_create_object_heap.lto_priv.0
                0x0000000008005f60       0x64 /var/folders/yg/3nxcpv294hvfwgl_w3cbnbrh0000gn/T//ch.elf.rjwPRd.ltrans0.ltrans.o
                0x0000000008005f60                dyn_create_object_heap.lto_priv.0
 *fill*         0x0000000008005fc4        0xc 
 .text.chFactoryReleaseObject
                0x0000000008005fd0       0x64 /var/folders/yg/3nxcpv294hvfwgl_w3cbnbrh0000gn/T//ch.elf.rjwPRd.ltrans0.ltrans.o
                0x0000000008005fd0                chFactoryReleaseObject
 *fill*         0x0000000008006034        0xc 
 .text.chFactoryReleaseBuffer
                0x0000000008006040       0x50 /var/folders/yg/3nxcpv294hvfwgl_w3cbnbrh0000gn/T//ch.elf.rjwPRd.ltrans0.ltrans.o
                0x0000000008006040                chFactoryReleaseBuffer
 .text.chFactoryReleaseSemaphore
                0x0000000008006090       0x64 /var/folders/yg/3nxcpv294hvfwgl_w3cbnbrh0000gn/T//ch.elf.rjwPRd.ltrans0.ltrans.o
                0x0000000008006090                chFactoryReleaseSemaphore
 *fill*         0x00000000080060f4        0xc 
 .text.chFactoryReleaseMailbox
                0x0000000008006100       0x50 /var/folders/yg/3nxcpv294hvfwgl_w3cbnbrh0000gn/T//ch.elf.rjwPRd.ltrans0.ltrans.o
                0x0000000008006100                chFactoryReleaseMailbox
 .text.chFactoryReleaseObjectsFIFO
                0x0000000008006150       0x50 /var/folders/yg/3nxcpv294hvfwgl_w3cbnbrh0000gn/T//ch.elf.rjwPRd.ltrans0.ltrans.o
                0x0000000008006150                chFactoryReleaseObjectsFIFO
 .text.chFactoryReleasePipe
                0x00000000080061a0       0x50 /var/folders/yg/3nxcpv294hvfwgl_w3cbnbrh0000gn/T//ch.elf.rjwPRd.ltrans0.ltrans.o
                0x00000000080061a0                chFactoryReleasePipe
 .text.SVC_Handler
                0x00000000080061f0       0x14 /var/folders/yg/3nxcpv294hvfwgl_w3cbnbrh0000gn/T//ch.elf.rjwPRd.ltrans0.ltrans.o
                0x00000000080061f0                SVC_Handler
 *fill*         0x0000000008006204        0xc 
 .text.chprintf
                0x0000000008006210      0x440 /var/folders/yg/3nxcpv294hvfwgl_w3cbnbrh0000gn/T//ch.elf.rjwPRd.ltrans0.ltrans.o
                0x0000000008006210                chprintf
 .text.shellThread
                0x0000000008006650      0x254 /var/folders/yg/3nxcpv294hvfwgl_w3cbnbrh0000gn/T//ch.elf.rjwPRd.ltrans0.ltrans.o
                0x0000000008006650                shellThread
 *fill*         0x00000000080068a4        0xc 
 .text.cmd_exit
                0x00000000080068b0       0x34 /var/folders/yg/3nxcpv294hvfwgl_w3cbnbrh0000gn/T//ch.elf.rjwPRd.ltrans0.ltrans.o
 *fill*         0x00000000080068e4        0xc 
 .text.cmd_info
                0x00000000080068f0       0xbc /var/folders/yg/3nxcpv294hvfwgl_w3cbnbrh0000gn/T//ch.elf.rjwPRd.ltrans0.ltrans.o
 *fill*         0x00000000080069ac        0x4 
 .text.cmd_echo
                0x00000000080069b0       0x20 /var/folders/yg/3nxcpv294hvfwgl_w3cbnbrh0000gn/T//ch.elf.rjwPRd.ltrans0.ltrans.o
 .text.cmd_systime
                0x00000000080069d0       0x28 /var/folders/yg/3nxcpv294hvfwgl_w3cbnbrh0000gn/T//ch.elf.rjwPRd.ltrans0.ltrans.o
 *fill*         0x00000000080069f8        0x8 
 .text.cmd_mem  0x0000000008006a00       0xa8 /var/folders/yg/3nxcpv294hvfwgl_w3cbnbrh0000gn/T//ch.elf.rjwPRd.ltrans0.ltrans.o
 *fill*         0x0000000008006aa8        0x8 
 .text.cmd_threads
                0x0000000008006ab0       0xe8 /var/folders/yg/3nxcpv294hvfwgl_w3cbnbrh0000gn/T//ch.elf.rjwPRd.ltrans0.ltrans.o
 *fill*         0x0000000008006b98        0x8 
 .text.cmd_test
                0x0000000008006ba0       0x8c /var/folders/yg/3nxcpv294hvfwgl_w3cbnbrh0000gn/T//ch.elf.rjwPRd.ltrans0.ltrans.o
 *fill*         0x0000000008006c2c        0x4 
 .text.get_ldnumber.lto_priv.0
                0x0000000008006c30       0x34 /var/folders/yg/3nxcpv294hvfwgl_w3cbnbrh0000gn/T//ch.elf.rjwPRd.ltrans0.ltrans.o
                0x0000000008006c30                get_ldnumber.lto_priv.0
 *fill*         0x0000000008006c64        0xc 
 .text.move_window.part.0.lto_priv.0
                0x0000000008006c70       0x90 /var/folders/yg/3nxcpv294hvfwgl_w3cbnbrh0000gn/T//ch.elf.rjwPRd.ltrans0.ltrans.o
                0x0000000008006c70                move_window.part.0.lto_priv.0
 .text.get_fat.lto_priv.0
                0x0000000008006d00      0x140 /var/folders/yg/3nxcpv294hvfwgl_w3cbnbrh0000gn/T//ch.elf.rjwPRd.ltrans0.ltrans.o
                0x0000000008006d00                get_fat.lto_priv.0
 .text.check_fs.lto_priv.0
                0x0000000008006e40       0xc0 /var/folders/yg/3nxcpv294hvfwgl_w3cbnbrh0000gn/T//ch.elf.rjwPRd.ltrans0.ltrans.o
                0x0000000008006e40                check_fs.lto_priv.0
 .text.ff_wtoupper.part.0
                0x0000000008006f00       0xb4 /var/folders/yg/3nxcpv294hvfwgl_w3cbnbrh0000gn/T//ch.elf.rjwPRd.ltrans0.ltrans.o
                0x0000000008006f00                ff_wtoupper.part.0
 *fill*         0x0000000008006fb4        0xc 
 .text.__test_assert
                0x0000000008006fc0       0x18 /var/folders/yg/3nxcpv294hvfwgl_w3cbnbrh0000gn/T//ch.elf.rjwPRd.ltrans0.ltrans.o
                0x0000000008006fc0                __test_assert
 *fill*         0x0000000008006fd8        0x8 
 .text.__test_assert_sequence
                0x0000000008006fe0       0x3c /var/folders/yg/3nxcpv294hvfwgl_w3cbnbrh0000gn/T//ch.elf.rjwPRd.ltrans0.ltrans.o
                0x0000000008006fe0                __test_assert_sequence
 *fill*         0x000000000800701c        0x4 
 .text.rt_test_005_002_execute
                0x0000000008007020      0x1fc /var/folders/yg/3nxcpv294hvfwgl_w3cbnbrh0000gn/T//ch.elf.rjwPRd.ltrans0.ltrans.o
 *fill*         0x000000000800721c        0x4 
 .text.rt_test_007_002_execute
                0x0000000008007220      0x194 /var/folders/yg/3nxcpv294hvfwgl_w3cbnbrh0000gn/T//ch.elf.rjwPRd.ltrans0.ltrans.o
 *fill*         0x00000000080073b4        0xc 
 .text.rt_test_007_003_execute
                0x00000000080073c0      0x1b4 /var/folders/yg/3nxcpv294hvfwgl_w3cbnbrh0000gn/T//ch.elf.rjwPRd.ltrans0.ltrans.o
 *fill*         0x0000000008007574        0xc 
 .text.rt_test_007_004_execute
                0x0000000008007580       0xf4 /var/folders/yg/3nxcpv294hvfwgl_w3cbnbrh0000gn/T//ch.elf.rjwPRd.ltrans0.ltrans.o
 *fill*         0x0000000008007674        0xc 
 .text.rt_test_008_001_execute
                0x0000000008007680      0x10c /var/folders/yg/3nxcpv294hvfwgl_w3cbnbrh0000gn/T//ch.elf.rjwPRd.ltrans0.ltrans.o
 *fill*         0x000000000800778c        0x4 
 .text.rt_test_008_007_execute
                0x0000000008007790      0x1c0 /var/folders/yg/3nxcpv294hvfwgl_w3cbnbrh0000gn/T//ch.elf.rjwPRd.ltrans0.ltrans.o
 .text.rt_test_008_008_execute
                0x0000000008007950      0x12c /var/folders/yg/3nxcpv294hvfwgl_w3cbnbrh0000gn/T//ch.elf.rjwPRd.ltrans0.ltrans.o
 *fill*         0x0000000008007a7c        0x4 
 .text.rt_test_008_009_execute
                0x0000000008007a80       0xf4 /var/folders/yg/3nxcpv294hvfwgl_w3cbnbrh0000gn/T//ch.elf.rjwPRd.ltrans0.ltrans.o
 *fill*         0x0000000008007b74        0xc 
 .text.rt_test_009_001_execute
                0x0000000008007b80       0xe0 /var/folders/yg/3nxcpv294hvfwgl_w3cbnbrh0000gn/T//ch.elf.rjwPRd.ltrans0.ltrans.o
 .text.rt_test_010_002_execute
                0x0000000008007c60       0x4c /var/folders/yg/3nxcpv294hvfwgl_w3cbnbrh0000gn/T//ch.elf.rjwPRd.ltrans0.ltrans.o
 *fill*         0x0000000008007cac        0x4 
 .text.rt_test_011_001_execute
                0x0000000008007cb0      0x210 /var/folders/yg/3nxcpv294hvfwgl_w3cbnbrh0000gn/T//ch.elf.rjwPRd.ltrans0.ltrans.o
 .text.rt_test_011_002_execute
                0x0000000008007ec0      0x1b0 /var/folders/yg/3nxcpv294hvfwgl_w3cbnbrh0000gn/T//ch.elf.rjwPRd.ltrans0.ltrans.o
 .text.test_printf
                0x0000000008008070      0x450 /var/folders/yg/3nxcpv294hvfwgl_w3cbnbrh0000gn/T//ch.elf.rjwPRd.ltrans0.ltrans.o
                0x0000000008008070                test_printf
 .text.rt_test_001_001_execute.lto_priv.0
                0x00000000080084c0       0xdc /var/folders/yg/3nxcpv294hvfwgl_w3cbnbrh0000gn/T//ch.elf.rjwPRd.ltrans0.ltrans.o
                0x00000000080084c0                rt_test_001_001_execute.lto_priv.0
 *fill*         0x000000000800859c        0x4 
 .text.rt_test_001_002_execute
                0x00000000080085a0       0xbc /var/folders/yg/3nxcpv294hvfwgl_w3cbnbrh0000gn/T//ch.elf.rjwPRd.ltrans0.ltrans.o
 *fill*         0x000000000800865c        0x4 
 .text.rt_test_001_003_execute
                0x0000000008008660      0x3b0 /var/folders/yg/3nxcpv294hvfwgl_w3cbnbrh0000gn/T//ch.elf.rjwPRd.ltrans0.ltrans.o
 .text.rt_test_012_001_execute
                0x0000000008008a10       0xa0 /var/folders/yg/3nxcpv294hvfwgl_w3cbnbrh0000gn/T//ch.elf.rjwPRd.ltrans0.ltrans.o
 .text.rt_test_012_002_execute
                0x0000000008008ab0       0xa0 /var/folders/yg/3nxcpv294hvfwgl_w3cbnbrh0000gn/T//ch.elf.rjwPRd.ltrans0.ltrans.o
 .text.rt_test_012_003_execute
                0x0000000008008b50      0x104 /var/folders/yg/3nxcpv294hvfwgl_w3cbnbrh0000gn/T//ch.elf.rjwPRd.ltrans0.ltrans.o
 *fill*         0x0000000008008c54        0xc 
 .text.rt_test_012_007_setup.lto_priv.0
                0x0000000008008c60       0x10 /var/folders/yg/3nxcpv294hvfwgl_w3cbnbrh0000gn/T//ch.elf.rjwPRd.ltrans1.ltrans.o
                0x0000000008008c60                rt_test_012_007_setup.lto_priv.0
 .text.rt_test_012_010_setup.lto_priv.0
                0x0000000008008c70       0x10 /var/folders/yg/3nxcpv294hvfwgl_w3cbnbrh0000gn/T//ch.elf.rjwPRd.ltrans1.ltrans.o
                0x0000000008008c70                rt_test_012_010_setup.lto_priv.0
 .text.rt_test_012_011_setup.lto_priv.0
                0x0000000008008c80       0x10 /var/folders/yg/3nxcpv294hvfwgl_w3cbnbrh0000gn/T//ch.elf.rjwPRd.ltrans1.ltrans.o
                0x0000000008008c80                rt_test_012_011_setup.lto_priv.0
 .text.oslib_test_002_003_setup.lto_priv.0
                0x0000000008008c90       0x34 /var/folders/yg/3nxcpv294hvfwgl_w3cbnbrh0000gn/T//ch.elf.rjwPRd.ltrans1.ltrans.o
                0x0000000008008c90                oslib_test_002_003_setup.lto_priv.0
 *fill*         0x0000000008008cc4        0xc 
 .text.oslib_test_002_001_setup
                0x0000000008008cd0       0x34 /var/folders/yg/3nxcpv294hvfwgl_w3cbnbrh0000gn/T//ch.elf.rjwPRd.ltrans1.ltrans.o
                0x0000000008008cd0                oslib_test_002_001_setup.lto_priv.0
 *fill*         0x0000000008008d04        0xc 
 .text.oslib_test_002_002_setup
                0x0000000008008d10       0x34 /var/folders/yg/3nxcpv294hvfwgl_w3cbnbrh0000gn/T//ch.elf.rjwPRd.ltrans1.ltrans.o
                0x0000000008008d10                oslib_test_002_002_setup.lto_priv.0
 *fill*         0x0000000008008d44        0xc 
 .text.oslib_test_003_001_setup.lto_priv.0
                0x0000000008008d50       0x48 /var/folders/yg/3nxcpv294hvfwgl_w3cbnbrh0000gn/T//ch.elf.rjwPRd.ltrans1.ltrans.o
                0x0000000008008d50                oslib_test_003_001_setup.lto_priv.0
 *fill*         0x0000000008008d98        0x8 
 .text.oslib_test_003_002_setup.lto_priv.0
                0x0000000008008da0       0x48 /var/folders/yg/3nxcpv294hvfwgl_w3cbnbrh0000gn/T//ch.elf.rjwPRd.ltrans1.ltrans.o
                0x0000000008008da0                oslib_test_003_002_setup.lto_priv.0
 *fill*         0x0000000008008de8        0x8 
 .text.dis_func0
                0x0000000008008df0       0x20 /var/folders/yg/3nxcpv294hvfwgl_w3cbnbrh0000gn/T//ch.elf.rjwPRd.ltrans1.ltrans.o
 .text.dis_func1
                0x0000000008008e10       0x18 /var/folders/yg/3nxcpv294hvfwgl_w3cbnbrh0000gn/T//ch.elf.rjwPRd.ltrans1.ltrans.o
 *fill*         0x0000000008008e28        0x8 
 .text.dis_func2
                0x0000000008008e30       0x2c /var/folders/yg/3nxcpv294hvfwgl_w3cbnbrh0000gn/T//ch.elf.rjwPRd.ltrans1.ltrans.o
 *fill*         0x0000000008008e5c        0x4 
 .text.dis_func3
                0x0000000008008e60       0x38 /var/folders/yg/3nxcpv294hvfwgl_w3cbnbrh0000gn/T//ch.elf.rjwPRd.ltrans1.ltrans.o
 *fill*         0x0000000008008e98        0x8 
 .text.dis_func4
                0x0000000008008ea0       0x48 /var/folders/yg/3nxcpv294hvfwgl_w3cbnbrh0000gn/T//ch.elf.rjwPRd.ltrans1.ltrans.o
 *fill*         0x0000000008008ee8        0x8 
 .text.dis_func_end
                0x0000000008008ef0       0x28 /var/folders/yg/3nxcpv294hvfwgl_w3cbnbrh0000gn/T//ch.elf.rjwPRd.ltrans1.ltrans.o
 *fill*         0x0000000008008f18        0x8 
 .text.obj_write
                0x0000000008008f20       0x20 /var/folders/yg/3nxcpv294hvfwgl_w3cbnbrh0000gn/T//ch.elf.rjwPRd.ltrans1.ltrans.o
 .text.null_provider
                0x0000000008008f40        0x4 /var/folders/yg/3nxcpv294hvfwgl_w3cbnbrh0000gn/T//ch.elf.rjwPRd.ltrans1.ltrans.o
 *fill*         0x0000000008008f44        0xc 
 .text.oslib_test_007_001_setup.lto_priv.0
                0x0000000008008f50       0x14 /var/folders/yg/3nxcpv294hvfwgl_w3cbnbrh0000gn/T//ch.elf.rjwPRd.ltrans1.ltrans.o
                0x0000000008008f50                oslib_test_007_001_setup.lto_priv.0
 *fill*         0x0000000008008f64        0xc 
 .text.oslib_test_007_001_execute.lto_priv.0
                0x0000000008008f70      0x198 /var/folders/yg/3nxcpv294hvfwgl_w3cbnbrh0000gn/T//ch.elf.rjwPRd.ltrans1.ltrans.o
                0x0000000008008f70                oslib_test_007_001_execute.lto_priv.0
 *fill*         0x0000000008009108        0x8 
 .text.oslib_test_007_003_setup.lto_priv.0
                0x0000000008009110       0x1c /var/folders/yg/3nxcpv294hvfwgl_w3cbnbrh0000gn/T//ch.elf.rjwPRd.ltrans1.ltrans.o
                0x0000000008009110                oslib_test_007_003_setup.lto_priv.0
 *fill*         0x000000000800912c        0x4 
 .text.oslib_test_007_002_setup
                0x0000000008009130       0x1c /var/folders/yg/3nxcpv294hvfwgl_w3cbnbrh0000gn/T//ch.elf.rjwPRd.ltrans1.ltrans.o
                0x0000000008009130                oslib_test_007_002_setup.lto_priv.0
 *fill*         0x000000000800914c        0x4 
 .text.oslib_test_008_001_setup.lto_priv.0
                0x0000000008009150       0x34 /var/folders/yg/3nxcpv294hvfwgl_w3cbnbrh0000gn/T//ch.elf.rjwPRd.ltrans1.ltrans.o
                0x0000000008009150                oslib_test_008_001_setup.lto_priv.0
 *fill*         0x0000000008009184        0xc 
 .text.Thread1.lto_priv.2
                0x0000000008009190       0x48 /var/folders/yg/3nxcpv294hvfwgl_w3cbnbrh0000gn/T//ch.elf.rjwPRd.ltrans1.ltrans.o
 *fill*         0x00000000080091d8        0x8 
 .text.init_alloc_info.isra.0
                0x00000000080091e0       0x20 /var/folders/yg/3nxcpv294hvfwgl_w3cbnbrh0000gn/T//ch.elf.rjwPRd.ltrans1.ltrans.o
 .text.rt_test_012_012_execute.lto_priv.0
                0x0000000008009200      0x14c /var/folders/yg/3nxcpv294hvfwgl_w3cbnbrh0000gn/T//ch.elf.rjwPRd.ltrans1.ltrans.o
                0x0000000008009200                rt_test_012_012_execute.lto_priv.0
 *fill*         0x000000000800934c        0x4 
 .text.oslib_test_001_002_execute.lto_priv.0
                0x0000000008009350       0xc4 /var/folders/yg/3nxcpv294hvfwgl_w3cbnbrh0000gn/T//ch.elf.rjwPRd.ltrans1.ltrans.o
                0x0000000008009350                oslib_test_001_002_execute.lto_priv.0
 *fill*         0x0000000008009414        0xc 
 .text.oslib_test_001_003_execute.lto_priv.0
                0x0000000008009420      0x1ec /var/folders/yg/3nxcpv294hvfwgl_w3cbnbrh0000gn/T//ch.elf.rjwPRd.ltrans1.ltrans.o
                0x0000000008009420                oslib_test_001_003_execute.lto_priv.0
 *fill*         0x000000000800960c        0x4 
 .text.ShellHandler
                0x0000000008009610       0x20 /var/folders/yg/3nxcpv294hvfwgl_w3cbnbrh0000gn/T//ch.elf.rjwPRd.ltrans1.ltrans.o
 .text.rt_test_012_010_execute.lto_priv.0
                0x0000000008009630      0x214 /var/folders/yg/3nxcpv294hvfwgl_w3cbnbrh0000gn/T//ch.elf.rjwPRd.ltrans1.ltrans.o
                0x0000000008009630                rt_test_012_010_execute.lto_priv.0
 *fill*         0x0000000008009844        0xc 
 .text.chCacheGetObject.constprop.0
                0x0000000008009850      0x168 /var/folders/yg/3nxcpv294hvfwgl_w3cbnbrh0000gn/T//ch.elf.rjwPRd.ltrans1.ltrans.o
 *fill*         0x00000000080099b8        0x8 
 .text.rt_test_012_011_execute.lto_priv.0
                0x00000000080099c0       0xdc /var/folders/yg/3nxcpv294hvfwgl_w3cbnbrh0000gn/T//ch.elf.rjwPRd.ltrans1.ltrans.o
                0x00000000080099c0                rt_test_012_011_execute.lto_priv.0
 *fill*         0x0000000008009a9c        0x4 
 .text.oslib_test_001_001_execute
                0x0000000008009aa0        0x4 /var/folders/yg/3nxcpv294hvfwgl_w3cbnbrh0000gn/T//ch.elf.rjwPRd.ltrans1.ltrans.o
                0x0000000008009aa0                oslib_test_001_001_execute.lto_priv.0
 *fill*         0x0000000008009aa4        0xc 
 .text.chMBPostAheadI.constprop.0
                0x0000000008009ab0       0x70 /var/folders/yg/3nxcpv294hvfwgl_w3cbnbrh0000gn/T//ch.elf.rjwPRd.ltrans1.ltrans.o
 .text.oslib_test_002_001_teardown
                0x0000000008009b20       0xb0 /var/folders/yg/3nxcpv294hvfwgl_w3cbnbrh0000gn/T//ch.elf.rjwPRd.ltrans1.ltrans.o
                0x0000000008009b20                oslib_test_002_001_teardown.lto_priv.0
 .text.oslib_test_002_002_teardown
                0x0000000008009bd0       0xb0 /var/folders/yg/3nxcpv294hvfwgl_w3cbnbrh0000gn/T//ch.elf.rjwPRd.ltrans1.ltrans.o
                0x0000000008009bd0                oslib_test_002_002_teardown.lto_priv.0
 .text.oslib_test_002_003_teardown.lto_priv.0
                0x0000000008009c80       0xb0 /var/folders/yg/3nxcpv294hvfwgl_w3cbnbrh0000gn/T//ch.elf.rjwPRd.ltrans1.ltrans.o
                0x0000000008009c80                oslib_test_002_003_teardown.lto_priv.0
 .text.obj_read
                0x0000000008009d30       0xc8 /var/folders/yg/3nxcpv294hvfwgl_w3cbnbrh0000gn/T//ch.elf.rjwPRd.ltrans1.ltrans.o
 *fill*         0x0000000008009df8        0x8 
 .text.chMBPostAheadTimeout.constprop.0
                0x0000000008009e00       0xbc /var/folders/yg/3nxcpv294hvfwgl_w3cbnbrh0000gn/T//ch.elf.rjwPRd.ltrans1.ltrans.o
 *fill*         0x0000000008009ebc        0x4 
 .text.oslib_test_006_001_execute.lto_priv.0
                0x0000000008009ec0      0x604 /var/folders/yg/3nxcpv294hvfwgl_w3cbnbrh0000gn/T//ch.elf.rjwPRd.ltrans1.ltrans.o
                0x0000000008009ec0                oslib_test_006_001_execute.lto_priv.0
 *fill*         0x000000000800a4c4        0xc 
 .text.oslib_test_002_001_execute.lto_priv.0
                0x000000000800a4d0      0x3d4 /var/folders/yg/3nxcpv294hvfwgl_w3cbnbrh0000gn/T//ch.elf.rjwPRd.ltrans1.ltrans.o
                0x000000000800a4d0                oslib_test_002_001_execute.lto_priv.0
 *fill*         0x000000000800a8a4        0xc 
 .text.oslib_test_002_002_execute.lto_priv.0
                0x000000000800a8b0      0x40c /var/folders/yg/3nxcpv294hvfwgl_w3cbnbrh0000gn/T//ch.elf.rjwPRd.ltrans1.ltrans.o
                0x000000000800a8b0                oslib_test_002_002_execute.lto_priv.0
 *fill*         0x000000000800acbc        0x4 
 .text.oslib_test_002_003_execute.lto_priv.0
                0x000000000800acc0      0x210 /var/folders/yg/3nxcpv294hvfwgl_w3cbnbrh0000gn/T//ch.elf.rjwPRd.ltrans1.ltrans.o
                0x000000000800acc0                oslib_test_002_003_execute.lto_priv.0
 .text.Thread1.lto_priv.0
                0x000000000800aed0       0x9c /var/folders/yg/3nxcpv294hvfwgl_w3cbnbrh0000gn/T//ch.elf.rjwPRd.ltrans1.ltrans.o
 *fill*         0x000000000800af6c        0x4 
 .text.oslib_test_007_002_execute.lto_priv.0
                0x000000000800af70      0x164 /var/folders/yg/3nxcpv294hvfwgl_w3cbnbrh0000gn/T//ch.elf.rjwPRd.ltrans1.ltrans.o
                0x000000000800af70                oslib_test_007_002_execute.lto_priv.0
 *fill*         0x000000000800b0d4        0xc 
 .text.oslib_test_007_003_execute.lto_priv.0
                0x000000000800b0e0       0x2c /var/folders/yg/3nxcpv294hvfwgl_w3cbnbrh0000gn/T//ch.elf.rjwPRd.ltrans1.ltrans.o
                0x000000000800b0e0                oslib_test_007_003_execute.lto_priv.0
 *fill*         0x000000000800b10c        0x4 
 .text.oslib_test_004_001_execute.lto_priv.0
                0x000000000800b110      0x1d8 /var/folders/yg/3nxcpv294hvfwgl_w3cbnbrh0000gn/T//ch.elf.rjwPRd.ltrans1.ltrans.o
                0x000000000800b110                oslib_test_004_001_execute.lto_priv.0
 *fill*         0x000000000800b2e8        0x8 
 .text.Thread1.lto_priv.1
                0x000000000800b2f0       0x98 /var/folders/yg/3nxcpv294hvfwgl_w3cbnbrh0000gn/T//ch.elf.rjwPRd.ltrans1.ltrans.o
 *fill*         0x000000000800b388        0x8 
 .text.oslib_test_005_001_execute.lto_priv.0
                0x000000000800b390      0x14c /var/folders/yg/3nxcpv294hvfwgl_w3cbnbrh0000gn/T//ch.elf.rjwPRd.ltrans1.ltrans.o
                0x000000000800b390                oslib_test_005_001_execute.lto_priv.0
 *fill*         0x000000000800b4dc        0x4 
 .text.oslib_test_008_001_execute.lto_priv.0
                0x000000000800b4e0      0x44c /var/folders/yg/3nxcpv294hvfwgl_w3cbnbrh0000gn/T//ch.elf.rjwPRd.ltrans1.ltrans.o
                0x000000000800b4e0                oslib_test_008_001_execute.lto_priv.0
 *fill*         0x000000000800b92c        0x4 
 .text.oslib_test_008_002_execute.lto_priv.0
                0x000000000800b930       0x7c /var/folders/yg/3nxcpv294hvfwgl_w3cbnbrh0000gn/T//ch.elf.rjwPRd.ltrans1.ltrans.o
                0x000000000800b930                oslib_test_008_002_execute.lto_priv.0
 *fill*         0x000000000800b9ac        0x4 
 .text.chFactoryCreateSemaphore.constprop.0
                0x000000000800b9b0       0xc0 /var/folders/yg/3nxcpv294hvfwgl_w3cbnbrh0000gn/T//ch.elf.rjwPRd.ltrans1.ltrans.o
 .text.oslib_test_009_005_teardown.lto_priv.0
                0x000000000800ba70       0xac /var/folders/yg/3nxcpv294hvfwgl_w3cbnbrh0000gn/T//ch.elf.rjwPRd.ltrans1.ltrans.o
                0x000000000800ba70                oslib_test_009_005_teardown.lto_priv.0
 *fill*         0x000000000800bb1c        0x4 
 .text.oslib_test_009_001_teardown.lto_priv.0
                0x000000000800bb20       0x68 /var/folders/yg/3nxcpv294hvfwgl_w3cbnbrh0000gn/T//ch.elf.rjwPRd.ltrans1.ltrans.o
                0x000000000800bb20                oslib_test_009_001_teardown.lto_priv.0
 *fill*         0x000000000800bb88        0x8 
 .text.oslib_test_009_002_teardown.lto_priv.0
                0x000000000800bb90       0xac /var/folders/yg/3nxcpv294hvfwgl_w3cbnbrh0000gn/T//ch.elf.rjwPRd.ltrans1.ltrans.o
                0x000000000800bb90                oslib_test_009_002_teardown.lto_priv.0
 *fill*         0x000000000800bc3c        0x4 
 .text.oslib_test_009_004_teardown.lto_priv.0
                0x000000000800bc40       0xac /var/folders/yg/3nxcpv294hvfwgl_w3cbnbrh0000gn/T//ch.elf.rjwPRd.ltrans1.ltrans.o
                0x000000000800bc40                oslib_test_009_004_teardown.lto_priv.0
 *fill*         0x000000000800bcec        0x4 
 .text.oslib_test_009_006_teardown.lto_priv.0
                0x000000000800bcf0       0xac /var/folders/yg/3nxcpv294hvfwgl_w3cbnbrh0000gn/T//ch.elf.rjwPRd.ltrans1.ltrans.o
                0x000000000800bcf0                oslib_test_009_006_teardown.lto_priv.0
 *fill*         0x000000000800bd9c        0x4 
 .text.chFactoryFindPipe.constprop.0
                0x000000000800bda0       0x60 /var/folders/yg/3nxcpv294hvfwgl_w3cbnbrh0000gn/T//ch.elf.rjwPRd.ltrans1.ltrans.o
 .text.chFactoryFindObjectsFIFO.constprop.0
                0x000000000800be00       0x60 /var/folders/yg/3nxcpv294hvfwgl_w3cbnbrh0000gn/T//ch.elf.rjwPRd.ltrans1.ltrans.o
 .text.chFactoryFindMailbox.constprop.0
                0x000000000800be60       0x60 /var/folders/yg/3nxcpv294hvfwgl_w3cbnbrh0000gn/T//ch.elf.rjwPRd.ltrans1.ltrans.o
 .text.chFactoryFindSemaphore.constprop.0
                0x000000000800bec0       0x60 /var/folders/yg/3nxcpv294hvfwgl_w3cbnbrh0000gn/T//ch.elf.rjwPRd.ltrans1.ltrans.o
 .text.chFactoryFindBuffer.constprop.0
                0x000000000800bf20       0x60 /var/folders/yg/3nxcpv294hvfwgl_w3cbnbrh0000gn/T//ch.elf.rjwPRd.ltrans1.ltrans.o
 .text.chFactoryFindObject.constprop.0
                0x000000000800bf80       0x60 /var/folders/yg/3nxcpv294hvfwgl_w3cbnbrh0000gn/T//ch.elf.rjwPRd.ltrans1.ltrans.o
 .text.chFactoryRegisterObject.constprop.0
                0x000000000800bfe0       0xc4 /var/folders/yg/3nxcpv294hvfwgl_w3cbnbrh0000gn/T//ch.elf.rjwPRd.ltrans1.ltrans.o
 *fill*         0x000000000800c0a4        0xc 
 .text.oslib_test_009_001_execute.lto_priv.0
                0x000000000800c0b0      0x160 /var/folders/yg/3nxcpv294hvfwgl_w3cbnbrh0000gn/T//ch.elf.rjwPRd.ltrans1.ltrans.o
                0x000000000800c0b0                oslib_test_009_001_execute.lto_priv.0
 .text.chFactoryCreatePipe.constprop.0
                0x000000000800c210       0x70 /var/folders/yg/3nxcpv294hvfwgl_w3cbnbrh0000gn/T//ch.elf.rjwPRd.ltrans1.ltrans.o
 .text.oslib_test_009_006_execute.lto_priv.0
                0x000000000800c280      0x120 /var/folders/yg/3nxcpv294hvfwgl_w3cbnbrh0000gn/T//ch.elf.rjwPRd.ltrans1.ltrans.o
                0x000000000800c280                oslib_test_009_006_execute.lto_priv.0
 .text.chFactoryCreateObjectsFIFO.constprop.0
                0x000000000800c3a0       0xf4 /var/folders/yg/3nxcpv294hvfwgl_w3cbnbrh0000gn/T//ch.elf.rjwPRd.ltrans1.ltrans.o
 *fill*         0x000000000800c494        0xc 
 .text.oslib_test_009_005_execute.lto_priv.0
                0x000000000800c4a0      0x120 /var/folders/yg/3nxcpv294hvfwgl_w3cbnbrh0000gn/T//ch.elf.rjwPRd.ltrans1.ltrans.o
                0x000000000800c4a0                oslib_test_009_005_execute.lto_priv.0
 .text.chFactoryCreateMailbox.constprop.0
                0x000000000800c5c0       0x60 /var/folders/yg/3nxcpv294hvfwgl_w3cbnbrh0000gn/T//ch.elf.rjwPRd.ltrans1.ltrans.o
 .text.oslib_test_009_004_execute.lto_priv.0
                0x000000000800c620      0x120 /var/folders/yg/3nxcpv294hvfwgl_w3cbnbrh0000gn/T//ch.elf.rjwPRd.ltrans1.ltrans.o
                0x000000000800c620                oslib_test_009_004_execute.lto_priv.0
 .text.oslib_test_009_002_execute.lto_priv.0
                0x000000000800c740      0x194 /var/folders/yg/3nxcpv294hvfwgl_w3cbnbrh0000gn/T//ch.elf.rjwPRd.ltrans1.ltrans.o
                0x000000000800c740                oslib_test_009_002_execute.lto_priv.0
 *fill*         0x000000000800c8d4        0xc 
 .text.oslib_test_009_003_teardown.lto_priv.0
                0x000000000800c8e0       0x68 /var/folders/yg/3nxcpv294hvfwgl_w3cbnbrh0000gn/T//ch.elf.rjwPRd.ltrans1.ltrans.o
                0x000000000800c8e0                oslib_test_009_003_teardown.lto_priv.0
 *fill*         0x000000000800c948        0x8 
 .text.oslib_test_009_003_execute.lto_priv.0
                0x000000000800c950      0x120 /var/folders/yg/3nxcpv294hvfwgl_w3cbnbrh0000gn/T//ch.elf.rjwPRd.ltrans1.ltrans.o
                0x000000000800c950                oslib_test_009_003_execute.lto_priv.0
 .text.dir_next.constprop.0
                0x000000000800ca70       0x94 /var/folders/yg/3nxcpv294hvfwgl_w3cbnbrh0000gn/T//ch.elf.rjwPRd.ltrans1.ltrans.o
 *fill*         0x000000000800cb04        0xc 
 .text.dir_sdi.constprop.0
                0x000000000800cb10       0x74 /var/folders/yg/3nxcpv294hvfwgl_w3cbnbrh0000gn/T//ch.elf.rjwPRd.ltrans1.ltrans.o
 *fill*         0x000000000800cb84        0xc 
 .text.dir_read.constprop.0
                0x000000000800cb90      0x294 /var/folders/yg/3nxcpv294hvfwgl_w3cbnbrh0000gn/T//ch.elf.rjwPRd.ltrans1.ltrans.o
 *fill*         0x000000000800ce24        0xc 
 .text.RemoveHandler
                0x000000000800ce30       0x58 /var/folders/yg/3nxcpv294hvfwgl_w3cbnbrh0000gn/T//ch.elf.rjwPRd.ltrans1.ltrans.o
 *fill*         0x000000000800ce88        0x8 
 .text.mount_volume.constprop.0
                0x000000000800ce90      0x398 /var/folders/yg/3nxcpv294hvfwgl_w3cbnbrh0000gn/T//ch.elf.rjwPRd.ltrans1.ltrans.o
 *fill*         0x000000000800d228        0x8 
 .text.InsertHandler
                0x000000000800d230       0x6c /var/folders/yg/3nxcpv294hvfwgl_w3cbnbrh0000gn/T//ch.elf.rjwPRd.ltrans1.ltrans.o
 *fill*         0x000000000800d29c        0x4 
 .text.scan_files.constprop.0
                0x000000000800d2a0      0x9ac /var/folders/yg/3nxcpv294hvfwgl_w3cbnbrh0000gn/T//ch.elf.rjwPRd.ltrans1.ltrans.o
 *fill*         0x000000000800dc4c        0x4 
 .text.cmd_tree
                0x000000000800dc50      0x18c /var/folders/yg/3nxcpv294hvfwgl_w3cbnbrh0000gn/T//ch.elf.rjwPRd.ltrans1.ltrans.o
 *fill*         0x000000000800dddc        0x4 
 .text.chThdCreateFromMemoryPool.constprop.0
                0x000000000800dde0       0x88 /var/folders/yg/3nxcpv294hvfwgl_w3cbnbrh0000gn/T//ch.elf.rjwPRd.ltrans1.ltrans.o
                0x000000000800dde0                chThdCreateFromMemoryPool.constprop.0
 *fill*         0x000000000800de68        0x8 
 .text.chEvtWaitOneTimeout.constprop.0
                0x000000000800de70       0x4c /var/folders/yg/3nxcpv294hvfwgl_w3cbnbrh0000gn/T//ch.elf.rjwPRd.ltrans1.ltrans.o
                0x000000000800de70                chEvtWaitOneTimeout.constprop.0
 *fill*         0x000000000800debc        0x4 
 .text.chEvtWaitOne.constprop.0
                0x000000000800dec0       0x50 /var/folders/yg/3nxcpv294hvfwgl_w3cbnbrh0000gn/T//ch.elf.rjwPRd.ltrans1.ltrans.o
                0x000000000800dec0                chEvtWaitOne.constprop.0
 .text.chSemResetWithMessage.constprop.0
                0x000000000800df10       0x60 /var/folders/yg/3nxcpv294hvfwgl_w3cbnbrh0000gn/T//ch.elf.rjwPRd.ltrans1.ltrans.o
                0x000000000800df10                chSemResetWithMessage.constprop.0
 .text.chThdCreateStatic.constprop.0
                0x000000000800df70       0x90 /var/folders/yg/3nxcpv294hvfwgl_w3cbnbrh0000gn/T//ch.elf.rjwPRd.ltrans1.ltrans.o
                0x000000000800df70                chThdCreateStatic.constprop.0
 .text.rt_test_012_004_execute.lto_priv.0
                0x000000000800e000      0x108 /var/folders/yg/3nxcpv294hvfwgl_w3cbnbrh0000gn/T//ch.elf.rjwPRd.ltrans1.ltrans.o
                0x000000000800e000                rt_test_012_004_execute.lto_priv.0
 *fill*         0x000000000800e108        0x8 
 .text.rt_test_012_005_execute.lto_priv.0
                0x000000000800e110       0xa8 /var/folders/yg/3nxcpv294hvfwgl_w3cbnbrh0000gn/T//ch.elf.rjwPRd.ltrans1.ltrans.o
                0x000000000800e110                rt_test_012_005_execute.lto_priv.0
 *fill*         0x000000000800e1b8        0x8 
 .text.rt_test_012_006_execute.lto_priv.0
                0x000000000800e1c0       0xcc /var/folders/yg/3nxcpv294hvfwgl_w3cbnbrh0000gn/T//ch.elf.rjwPRd.ltrans1.ltrans.o
                0x000000000800e1c0                rt_test_012_006_execute.lto_priv.0
 *fill*         0x000000000800e28c        0x4 
 .text.rt_test_012_007_execute.lto_priv.0
                0x000000000800e290      0x170 /var/folders/yg/3nxcpv294hvfwgl_w3cbnbrh0000gn/T//ch.elf.rjwPRd.ltrans1.ltrans.o
                0x000000000800e290                rt_test_012_007_execute.lto_priv.0
 .text.rt_test_012_008_execute.lto_priv.0
                0x000000000800e400      0x138 /var/folders/yg/3nxcpv294hvfwgl_w3cbnbrh0000gn/T//ch.elf.rjwPRd.ltrans1.ltrans.o
                0x000000000800e400                rt_test_012_008_execute.lto_priv.0
 *fill*         0x000000000800e538        0x8 
 .text.vt_enqueue.constprop.0
                0x000000000800e540       0xa0 /var/folders/yg/3nxcpv294hvfwgl_w3cbnbrh0000gn/T//ch.elf.rjwPRd.ltrans1.ltrans.o
                0x000000000800e540                vt_enqueue.constprop.0
 .text.startup.main
                0x000000000800e5e0      0x7e0 /var/folders/yg/3nxcpv294hvfwgl_w3cbnbrh0000gn/T//ch.elf.rjwPRd.ltrans1.ltrans.o
                0x000000000800e5e0                main
 .text.rt_test_012_009_execute.lto_priv.0
                0x000000000800edc0       0xdc /var/folders/yg/3nxcpv294hvfwgl_w3cbnbrh0000gn/T//ch.elf.rjwPRd.ltrans1.ltrans.o
                0x000000000800edc0                rt_test_012_009_execute.lto_priv.0
 *fill*         0x000000000800ee9c        0x4 
 .text.job_slow
                0x000000000800eea0       0x78 /var/folders/yg/3nxcpv294hvfwgl_w3cbnbrh0000gn/T//ch.elf.rjwPRd.ltrans1.ltrans.o
 *fill*         0x000000000800ef18        0x8 
 .text.tmrfunc  0x000000000800ef20       0x8c /var/folders/yg/3nxcpv294hvfwgl_w3cbnbrh0000gn/T//ch.elf.rjwPRd.ltrans1.ltrans.o
 *fill*         0x000000000800efac        0x4 
 .text.chPipeWriteTimeout.constprop.0
                0x000000000800efb0      0x108 /var/folders/yg/3nxcpv294hvfwgl_w3cbnbrh0000gn/T//ch.elf.rjwPRd.ltrans1.ltrans.o
 *fill*         0x000000000800f0b8        0x8 
 .text.chPipeReadTimeout.part.0.constprop.0
                0x000000000800f0c0       0xe4 /var/folders/yg/3nxcpv294hvfwgl_w3cbnbrh0000gn/T//ch.elf.rjwPRd.ltrans1.ltrans.o
 *fill*         0x000000000800f1a4        0xc 
 .text.oslib_test_003_001_execute.lto_priv.0
                0x000000000800f1b0      0x47c /var/folders/yg/3nxcpv294hvfwgl_w3cbnbrh0000gn/T//ch.elf.rjwPRd.ltrans1.ltrans.o
                0x000000000800f1b0                oslib_test_003_001_execute.lto_priv.0
 *fill*         0x000000000800f62c        0x4 
 .text.oslib_test_003_002_execute.lto_priv.0
                0x000000000800f630       0x80 /var/folders/yg/3nxcpv294hvfwgl_w3cbnbrh0000gn/T//ch.elf.rjwPRd.ltrans1.ltrans.o
                0x000000000800f630                oslib_test_003_002_execute.lto_priv.0
 .text.chSemSignalWait.constprop.0.isra.0
                0x000000000800f6b0       0x9c /var/folders/yg/3nxcpv294hvfwgl_w3cbnbrh0000gn/T//ch.elf.rjwPRd.ltrans1.ltrans.o
                0x000000000800f6b0                chSemSignalWait.constprop.0.isra.0
 *fill*         0x000000000800f74c        0x4 
 .text.test_execute_inner.isra.0
                0x000000000800f750      0x320 /var/folders/yg/3nxcpv294hvfwgl_w3cbnbrh0000gn/T//ch.elf.rjwPRd.ltrans1.ltrans.o
                0x000000000800f750                test_execute_inner.isra.0
 .text.sdu_start_receive.isra.0
                0x000000000800fa70       0x48 /var/folders/yg/3nxcpv294hvfwgl_w3cbnbrh0000gn/T//ch.elf.rjwPRd.ltrans1.ltrans.o
                0x000000000800fa70                sdu_start_receive.isra.0
 .text.memcmp   0x000000000800fab8       0x68 /usr/local/Caskroom/gcc-arm-embedded/10-2020-q4-major/gcc-arm-none-eabi-10-2020-q4-major/bin/../lib/gcc/arm-none-eabi/10.2.1/../../../../arm-none-eabi/lib/thumb/v7-m/nofp/libg.a(lib_a-memcmp.o)
                0x000000000800fab8                memcmp
 .text.memset   0x000000000800fb20       0xa4 /usr/local/Caskroom/gcc-arm-embedded/10-2020-q4-major/gcc-arm-none-eabi-10-2020-q4-major/bin/../lib/gcc/arm-none-eabi/10.2.1/../../../../arm-none-eabi/lib/thumb/v7-m/nofp/libg.a(lib_a-memset.o)
                0x000000000800fb20                memset
 .text.strchr   0x000000000800fbc4       0xcc /usr/local/Caskroom/gcc-arm-embedded/10-2020-q4-major/gcc-arm-none-eabi-10-2020-q4-major/bin/../lib/gcc/arm-none-eabi/10.2.1/../../../../arm-none-eabi/lib/thumb/v7-m/nofp/libg.a(lib_a-strchr.o)
                0x000000000800fbc4                strchr
 .text.strcpy   0x000000000800fc90       0xbc /usr/local/Caskroom/gcc-arm-embedded/10-2020-q4-major/gcc-arm-none-eabi-10-2020-q4-major/bin/../lib/gcc/arm-none-eabi/10.2.1/../../../../arm-none-eabi/lib/thumb/v7-m/nofp/libg.a(lib_a-strcpy.o)
                0x000000000800fc90                strcpy
 .text.strlen   0x000000000800fd4c       0x5c /usr/local/Caskroom/gcc-arm-embedded/10-2020-q4-major/gcc-arm-none-eabi-10-2020-q4-major/bin/../lib/gcc/arm-none-eabi/10.2.1/../../../../arm-none-eabi/lib/thumb/v7-m/nofp/libg.a(lib_a-strlen-stub.o)
                0x000000000800fd4c                strlen
 .text.strncmp  0x000000000800fda8       0x7c /usr/local/Caskroom/gcc-arm-embedded/10-2020-q4-major/gcc-arm-none-eabi-10-2020-q4-major/bin/../lib/gcc/arm-none-eabi/10.2.1/../../../../arm-none-eabi/lib/thumb/v7-m/nofp/libg.a(lib_a-strncmp.o)
                0x000000000800fda8                strncmp
 .text.strpbrk  0x000000000800fe24       0x38 /usr/local/Caskroom/gcc-arm-embedded/10-2020-q4-major/gcc-arm-none-eabi-10-2020-q4-major/bin/../lib/gcc/arm-none-eabi/10.2.1/../../../../arm-none-eabi/lib/thumb/v7-m/nofp/libg.a(lib_a-strpbrk.o)
                0x000000000800fe24                strpbrk
 .text.strspn   0x000000000800fe5c       0x34 /usr/local/Caskroom/gcc-arm-embedded/10-2020-q4-major/gcc-arm-none-eabi-10-2020-q4-major/bin/../lib/gcc/arm-none-eabi/10.2.1/../../../../arm-none-eabi/lib/thumb/v7-m/nofp/libg.a(lib_a-strspn.o)
                0x000000000800fe5c                strspn
 *(.glue_7t)
 .glue_7t       0x000000000800fe90        0x0 linker stubs
 *(.glue_7)
 .glue_7        0x000000000800fe90        0x0 linker stubs
 *(.gcc*)
                0x000000000800fe90                __text_end__ = .

.vfp11_veneer   0x000000000800fe90        0x0
 .vfp11_veneer  0x000000000800fe90        0x0 linker stubs

.v4_bx          0x000000000800fe90        0x0
 .v4_bx         0x000000000800fe90        0x0 linker stubs

.iplt           0x000000000800fe90        0x0
 .iplt          0x000000000800fe90        0x0 ./build/obj/crt0_v7m.o

.rodata         0x000000000800fe90     0x3228
                0x000000000800fe90                __rodata_base__ = .
 *(.rodata)
 *(.rodata.*)
 .rodata.rt_test_002_001_execute.str1.4
                0x000000000800fe90       0x57 /var/folders/yg/3nxcpv294hvfwgl_w3cbnbrh0000gn/T//ch.elf.rjwPRd.ltrans0.ltrans.o
 *fill*         0x000000000800fee7        0x1 
 .rodata.rt_test_010_001_execute.str1.4
                0x000000000800fee8       0x1b /var/folders/yg/3nxcpv294hvfwgl_w3cbnbrh0000gn/T//ch.elf.rjwPRd.ltrans0.ltrans.o
 *fill*         0x000000000800ff03        0x1 
 .rodata.parse_arguments.str1.4
                0x000000000800ff04        0x3 /var/folders/yg/3nxcpv294hvfwgl_w3cbnbrh0000gn/T//ch.elf.rjwPRd.ltrans0.ltrans.o
 *fill*         0x000000000800ff07        0x1 
 .rodata.rt_test_007_005_execute.str1.4
                0x000000000800ff08       0x21 /var/folders/yg/3nxcpv294hvfwgl_w3cbnbrh0000gn/T//ch.elf.rjwPRd.ltrans0.ltrans.o
 *fill*         0x000000000800ff29        0x3 
 .rodata.rt_test_004_001_execute.str1.4
                0x000000000800ff2c        0xe /var/folders/yg/3nxcpv294hvfwgl_w3cbnbrh0000gn/T//ch.elf.rjwPRd.ltrans0.ltrans.o
 *fill*         0x000000000800ff3a        0x2 
 .rodata.rt_test_005_001_execute.str1.4
                0x000000000800ff3c       0x13 /var/folders/yg/3nxcpv294hvfwgl_w3cbnbrh0000gn/T//ch.elf.rjwPRd.ltrans0.ltrans.o
 *fill*         0x000000000800ff4f        0x1 
 .rodata.rt_test_010_006_execute.str1.4
                0x000000000800ff50        0xf /var/folders/yg/3nxcpv294hvfwgl_w3cbnbrh0000gn/T//ch.elf.rjwPRd.ltrans0.ltrans.o
 *fill*         0x000000000800ff5f        0x1 
 .rodata.rt_test_002_002_execute.str1.4
                0x000000000800ff60       0x12 /var/folders/yg/3nxcpv294hvfwgl_w3cbnbrh0000gn/T//ch.elf.rjwPRd.ltrans0.ltrans.o
 *fill*         0x000000000800ff72        0x2 
 .rodata.rt_test_005_003_execute.str1.4
                0x000000000800ff74       0x3e /var/folders/yg/3nxcpv294hvfwgl_w3cbnbrh0000gn/T//ch.elf.rjwPRd.ltrans0.ltrans.o
 *fill*         0x000000000800ffb2        0x2 
 .rodata.rt_test_005_004_execute.str1.4
                0x000000000800ffb4       0x47 /var/folders/yg/3nxcpv294hvfwgl_w3cbnbrh0000gn/T//ch.elf.rjwPRd.ltrans0.ltrans.o
 *fill*         0x000000000800fffb        0x1 
 .rodata.rt_test_007_001_execute.str1.4
                0x000000000800fffc       0x2b /var/folders/yg/3nxcpv294hvfwgl_w3cbnbrh0000gn/T//ch.elf.rjwPRd.ltrans0.ltrans.o
 *fill*         0x0000000008010027        0x1 
 .rodata.rt_test_007_006_execute.str1.4
                0x0000000008010028       0x3f /var/folders/yg/3nxcpv294hvfwgl_w3cbnbrh0000gn/T//ch.elf.rjwPRd.ltrans0.ltrans.o
                                         0x46 (size before relaxing)
 *fill*         0x0000000008010067        0x1 
 .rodata.rt_test_008_004_execute.str1.4
                0x0000000008010068       0x1d /var/folders/yg/3nxcpv294hvfwgl_w3cbnbrh0000gn/T//ch.elf.rjwPRd.ltrans0.ltrans.o
 *fill*         0x0000000008010085        0x3 
 .rodata.rt_test_008_005_execute.str1.4
                0x0000000008010088       0x28 /var/folders/yg/3nxcpv294hvfwgl_w3cbnbrh0000gn/T//ch.elf.rjwPRd.ltrans0.ltrans.o
 .rodata.rt_test_010_003_execute.str1.4
                0x00000000080100b0       0x31 /var/folders/yg/3nxcpv294hvfwgl_w3cbnbrh0000gn/T//ch.elf.rjwPRd.ltrans0.ltrans.o
 *fill*         0x00000000080100e1        0x3 
 .rodata.rt_test_006_001_execute.str1.4
                0x00000000080100e4        0x9 /var/folders/yg/3nxcpv294hvfwgl_w3cbnbrh0000gn/T//ch.elf.rjwPRd.ltrans0.ltrans.o
 *fill*         0x00000000080100ed        0x3 
 .rodata.rt_test_010_004_execute.str1.4
                0x00000000080100f0       0x17 /var/folders/yg/3nxcpv294hvfwgl_w3cbnbrh0000gn/T//ch.elf.rjwPRd.ltrans0.ltrans.o
 *fill*         0x0000000008010107        0x1 
 .rodata.chprintf.str1.4
                0x0000000008010108        0x7 /var/folders/yg/3nxcpv294hvfwgl_w3cbnbrh0000gn/T//ch.elf.rjwPRd.ltrans0.ltrans.o
 *fill*         0x000000000801010f        0x1 
 .rodata.shellThread.str1.4
                0x0000000008010110       0x81 /var/folders/yg/3nxcpv294hvfwgl_w3cbnbrh0000gn/T//ch.elf.rjwPRd.ltrans0.ltrans.o
                                         0x85 (size before relaxing)
 *fill*         0x0000000008010191        0x3 
 .rodata.cmd_info.str1.4
                0x0000000008010194      0x145 /var/folders/yg/3nxcpv294hvfwgl_w3cbnbrh0000gn/T//ch.elf.rjwPRd.ltrans0.ltrans.o
                                        0x159 (size before relaxing)
 *fill*         0x00000000080102d9        0x3 
 .rodata.cmd_echo.str1.4
                0x00000000080102dc        0xf /var/folders/yg/3nxcpv294hvfwgl_w3cbnbrh0000gn/T//ch.elf.rjwPRd.ltrans0.ltrans.o
                                         0x15 (size before relaxing)
 *fill*         0x00000000080102eb        0x1 
 .rodata.cmd_systime.str1.4
                0x00000000080102ec        0xe /var/folders/yg/3nxcpv294hvfwgl_w3cbnbrh0000gn/T//ch.elf.rjwPRd.ltrans0.ltrans.o
 *fill*         0x00000000080102fa        0x2 
 .rodata.cmd_mem.str1.4
                0x00000000080102fc       0x7a /var/folders/yg/3nxcpv294hvfwgl_w3cbnbrh0000gn/T//ch.elf.rjwPRd.ltrans0.ltrans.o
 *fill*         0x0000000008010376        0x2 
 .rodata.cmd_threads.str1.4
                0x0000000008010378       0x70 /var/folders/yg/3nxcpv294hvfwgl_w3cbnbrh0000gn/T//ch.elf.rjwPRd.ltrans0.ltrans.o
                                         0x7c (size before relaxing)
 .rodata.cmd_test.str1.4
                0x00000000080103e8       0x20 /var/folders/yg/3nxcpv294hvfwgl_w3cbnbrh0000gn/T//ch.elf.rjwPRd.ltrans0.ltrans.o
                                         0x30 (size before relaxing)
 .rodata.check_fs.lto_priv.0.str1.4
                0x0000000008010408       0x12 /var/folders/yg/3nxcpv294hvfwgl_w3cbnbrh0000gn/T//ch.elf.rjwPRd.ltrans0.ltrans.o
 *fill*         0x000000000801041a        0x2 
 .rodata.rt_test_005_002_execute.str1.4
                0x000000000801041c       0x1e /var/folders/yg/3nxcpv294hvfwgl_w3cbnbrh0000gn/T//ch.elf.rjwPRd.ltrans0.ltrans.o
                                         0x26 (size before relaxing)
 *fill*         0x000000000801043a        0x2 
 .rodata.rt_test_007_003_execute.str1.4
                0x000000000801043c       0x16 /var/folders/yg/3nxcpv294hvfwgl_w3cbnbrh0000gn/T//ch.elf.rjwPRd.ltrans0.ltrans.o
 *fill*         0x0000000008010452        0x2 
 .rodata.rt_test_007_004_execute.str1.4
                0x0000000008010454       0x10 /var/folders/yg/3nxcpv294hvfwgl_w3cbnbrh0000gn/T//ch.elf.rjwPRd.ltrans0.ltrans.o
 .rodata.rt_test_008_009_execute.str1.4
                0x0000000008010464        0x4 /var/folders/yg/3nxcpv294hvfwgl_w3cbnbrh0000gn/T//ch.elf.rjwPRd.ltrans0.ltrans.o
 .rodata.rt_test_009_001_execute.str1.4
                0x0000000008010468        0x5 /var/folders/yg/3nxcpv294hvfwgl_w3cbnbrh0000gn/T//ch.elf.rjwPRd.ltrans0.ltrans.o
 *fill*         0x000000000801046d        0x3 
 .rodata.rt_test_011_001_execute.str1.4
                0x0000000008010470       0xb2 /var/folders/yg/3nxcpv294hvfwgl_w3cbnbrh0000gn/T//ch.elf.rjwPRd.ltrans0.ltrans.o
 *fill*         0x0000000008010522        0x2 
 .rodata.rt_test_011_002_execute.str1.4
                0x0000000008010524       0x34 /var/folders/yg/3nxcpv294hvfwgl_w3cbnbrh0000gn/T//ch.elf.rjwPRd.ltrans0.ltrans.o
 .rodata.rt_test_001_001_execute.lto_priv.0.str1.4
                0x0000000008010558      0x135 /var/folders/yg/3nxcpv294hvfwgl_w3cbnbrh0000gn/T//ch.elf.rjwPRd.ltrans0.ltrans.o
 *fill*         0x000000000801068d        0x3 
 .rodata.rt_test_001_002_execute.str1.4
                0x0000000008010690      0x10d /var/folders/yg/3nxcpv294hvfwgl_w3cbnbrh0000gn/T//ch.elf.rjwPRd.ltrans0.ltrans.o
 *fill*         0x000000000801079d        0x3 
 .rodata.rt_test_001_003_execute.str1.4
                0x00000000080107a0      0x57d /var/folders/yg/3nxcpv294hvfwgl_w3cbnbrh0000gn/T//ch.elf.rjwPRd.ltrans0.ltrans.o
 *fill*         0x0000000008010d1d        0x3 
 .rodata.rt_test_012_001_execute.str1.4
                0x0000000008010d20       0x26 /var/folders/yg/3nxcpv294hvfwgl_w3cbnbrh0000gn/T//ch.elf.rjwPRd.ltrans0.ltrans.o
 *fill*         0x0000000008010d46        0x2 
 .rodata.str1.4
                0x0000000008010d48      0xa99 /var/folders/yg/3nxcpv294hvfwgl_w3cbnbrh0000gn/T//ch.elf.rjwPRd.ltrans0.ltrans.o
 *fill*         0x00000000080117e1        0x3 
 .rodata._stm32_dma_streams
                0x00000000080117e4       0xc0 /var/folders/yg/3nxcpv294hvfwgl_w3cbnbrh0000gn/T//ch.elf.rjwPRd.ltrans0.ltrans.o
                0x00000000080117e4                _stm32_dma_streams
 .rodata.active_status
                0x00000000080118a4        0x2 /var/folders/yg/3nxcpv294hvfwgl_w3cbnbrh0000gn/T//ch.elf.rjwPRd.ltrans0.ltrans.o
 *fill*         0x00000000080118a6        0x2 
 .rodata.cvt1.1
                0x00000000080118a8      0x1f2 /var/folders/yg/3nxcpv294hvfwgl_w3cbnbrh0000gn/T//ch.elf.rjwPRd.ltrans0.ltrans.o
 *fill*         0x0000000008011a9a        0x2 
 .rodata.cvt2.0
                0x0000000008011a9c       0xbc /var/folders/yg/3nxcpv294hvfwgl_w3cbnbrh0000gn/T//ch.elf.rjwPRd.ltrans0.ltrans.o
 .rodata.ep0config.lto_priv.0
                0x0000000008011b58       0x24 /var/folders/yg/3nxcpv294hvfwgl_w3cbnbrh0000gn/T//ch.elf.rjwPRd.ltrans0.ltrans.o
                0x0000000008011b58                ep0config.lto_priv.0
 .rodata.ep1config
                0x0000000008011b7c       0x24 /var/folders/yg/3nxcpv294hvfwgl_w3cbnbrh0000gn/T//ch.elf.rjwPRd.ltrans0.ltrans.o
 .rodata.ep2config
                0x0000000008011ba0       0x24 /var/folders/yg/3nxcpv294hvfwgl_w3cbnbrh0000gn/T//ch.elf.rjwPRd.ltrans0.ltrans.o
 .rodata.evhndl
                0x0000000008011bc4        0xc /var/folders/yg/3nxcpv294hvfwgl_w3cbnbrh0000gn/T//ch.elf.rjwPRd.ltrans0.ltrans.o
 .rodata.halted_status
                0x0000000008011bd0        0x2 /var/folders/yg/3nxcpv294hvfwgl_w3cbnbrh0000gn/T//ch.elf.rjwPRd.ltrans0.ltrans.o
 *fill*         0x0000000008011bd2        0x2 
 .rodata.oslib_test_001_001
                0x0000000008011bd4       0x10 /var/folders/yg/3nxcpv294hvfwgl_w3cbnbrh0000gn/T//ch.elf.rjwPRd.ltrans0.ltrans.o
 .rodata.oslib_test_001_002
                0x0000000008011be4       0x10 /var/folders/yg/3nxcpv294hvfwgl_w3cbnbrh0000gn/T//ch.elf.rjwPRd.ltrans0.ltrans.o
 .rodata.oslib_test_001_003
                0x0000000008011bf4       0x10 /var/folders/yg/3nxcpv294hvfwgl_w3cbnbrh0000gn/T//ch.elf.rjwPRd.ltrans0.ltrans.o
 .rodata.oslib_test_002_001
                0x0000000008011c04       0x10 /var/folders/yg/3nxcpv294hvfwgl_w3cbnbrh0000gn/T//ch.elf.rjwPRd.ltrans0.ltrans.o
 .rodata.oslib_test_002_002
                0x0000000008011c14       0x10 /var/folders/yg/3nxcpv294hvfwgl_w3cbnbrh0000gn/T//ch.elf.rjwPRd.ltrans0.ltrans.o
 .rodata.oslib_test_002_003
                0x0000000008011c24       0x10 /var/folders/yg/3nxcpv294hvfwgl_w3cbnbrh0000gn/T//ch.elf.rjwPRd.ltrans0.ltrans.o
 .rodata.oslib_test_003_001
                0x0000000008011c34       0x10 /var/folders/yg/3nxcpv294hvfwgl_w3cbnbrh0000gn/T//ch.elf.rjwPRd.ltrans0.ltrans.o
 .rodata.oslib_test_003_002
                0x0000000008011c44       0x10 /var/folders/yg/3nxcpv294hvfwgl_w3cbnbrh0000gn/T//ch.elf.rjwPRd.ltrans0.ltrans.o
 .rodata.oslib_test_004_001
                0x0000000008011c54       0x10 /var/folders/yg/3nxcpv294hvfwgl_w3cbnbrh0000gn/T//ch.elf.rjwPRd.ltrans0.ltrans.o
 .rodata.oslib_test_005_001
                0x0000000008011c64       0x10 /var/folders/yg/3nxcpv294hvfwgl_w3cbnbrh0000gn/T//ch.elf.rjwPRd.ltrans0.ltrans.o
 .rodata.oslib_test_006_001
                0x0000000008011c74       0x10 /var/folders/yg/3nxcpv294hvfwgl_w3cbnbrh0000gn/T//ch.elf.rjwPRd.ltrans0.ltrans.o
 .rodata.oslib_test_007_001
                0x0000000008011c84       0x10 /var/folders/yg/3nxcpv294hvfwgl_w3cbnbrh0000gn/T//ch.elf.rjwPRd.ltrans0.ltrans.o
 .rodata.oslib_test_007_002
                0x0000000008011c94       0x10 /var/folders/yg/3nxcpv294hvfwgl_w3cbnbrh0000gn/T//ch.elf.rjwPRd.ltrans0.ltrans.o
 .rodata.oslib_test_007_003
                0x0000000008011ca4       0x10 /var/folders/yg/3nxcpv294hvfwgl_w3cbnbrh0000gn/T//ch.elf.rjwPRd.ltrans0.ltrans.o
 .rodata.oslib_test_008_001
                0x0000000008011cb4       0x10 /var/folders/yg/3nxcpv294hvfwgl_w3cbnbrh0000gn/T//ch.elf.rjwPRd.ltrans0.ltrans.o
 .rodata.oslib_test_008_002
                0x0000000008011cc4       0x10 /var/folders/yg/3nxcpv294hvfwgl_w3cbnbrh0000gn/T//ch.elf.rjwPRd.ltrans0.ltrans.o
 .rodata.oslib_test_009_001
                0x0000000008011cd4       0x10 /var/folders/yg/3nxcpv294hvfwgl_w3cbnbrh0000gn/T//ch.elf.rjwPRd.ltrans0.ltrans.o
 .rodata.oslib_test_009_002
                0x0000000008011ce4       0x10 /var/folders/yg/3nxcpv294hvfwgl_w3cbnbrh0000gn/T//ch.elf.rjwPRd.ltrans0.ltrans.o
 .rodata.oslib_test_009_003
                0x0000000008011cf4       0x10 /var/folders/yg/3nxcpv294hvfwgl_w3cbnbrh0000gn/T//ch.elf.rjwPRd.ltrans0.ltrans.o
 .rodata.oslib_test_009_004
                0x0000000008011d04       0x10 /var/folders/yg/3nxcpv294hvfwgl_w3cbnbrh0000gn/T//ch.elf.rjwPRd.ltrans0.ltrans.o
 .rodata.oslib_test_009_005
                0x0000000008011d14       0x10 /var/folders/yg/3nxcpv294hvfwgl_w3cbnbrh0000gn/T//ch.elf.rjwPRd.ltrans0.ltrans.o
 .rodata.oslib_test_009_006
                0x0000000008011d24       0x10 /var/folders/yg/3nxcpv294hvfwgl_w3cbnbrh0000gn/T//ch.elf.rjwPRd.ltrans0.ltrans.o
 .rodata.oslib_test_sequence_001
                0x0000000008011d34        0x8 /var/folders/yg/3nxcpv294hvfwgl_w3cbnbrh0000gn/T//ch.elf.rjwPRd.ltrans0.ltrans.o
 .rodata.oslib_test_sequence_001_array
                0x0000000008011d3c       0x10 /var/folders/yg/3nxcpv294hvfwgl_w3cbnbrh0000gn/T//ch.elf.rjwPRd.ltrans0.ltrans.o
 .rodata.oslib_test_sequence_002
                0x0000000008011d4c        0x8 /var/folders/yg/3nxcpv294hvfwgl_w3cbnbrh0000gn/T//ch.elf.rjwPRd.ltrans0.ltrans.o
 .rodata.oslib_test_sequence_002_array
                0x0000000008011d54       0x10 /var/folders/yg/3nxcpv294hvfwgl_w3cbnbrh0000gn/T//ch.elf.rjwPRd.ltrans0.ltrans.o
 .rodata.oslib_test_sequence_003
                0x0000000008011d64        0x8 /var/folders/yg/3nxcpv294hvfwgl_w3cbnbrh0000gn/T//ch.elf.rjwPRd.ltrans0.ltrans.o
 .rodata.oslib_test_sequence_003_array
                0x0000000008011d6c        0xc /var/folders/yg/3nxcpv294hvfwgl_w3cbnbrh0000gn/T//ch.elf.rjwPRd.ltrans0.ltrans.o
 .rodata.oslib_test_sequence_004
                0x0000000008011d78        0x8 /var/folders/yg/3nxcpv294hvfwgl_w3cbnbrh0000gn/T//ch.elf.rjwPRd.ltrans0.ltrans.o
 .rodata.oslib_test_sequence_004_array
                0x0000000008011d80        0x8 /var/folders/yg/3nxcpv294hvfwgl_w3cbnbrh0000gn/T//ch.elf.rjwPRd.ltrans0.ltrans.o
 .rodata.oslib_test_sequence_005
                0x0000000008011d88        0x8 /var/folders/yg/3nxcpv294hvfwgl_w3cbnbrh0000gn/T//ch.elf.rjwPRd.ltrans0.ltrans.o
 .rodata.oslib_test_sequence_005_array
                0x0000000008011d90        0x8 /var/folders/yg/3nxcpv294hvfwgl_w3cbnbrh0000gn/T//ch.elf.rjwPRd.ltrans0.ltrans.o
 .rodata.oslib_test_sequence_006
                0x0000000008011d98        0x8 /var/folders/yg/3nxcpv294hvfwgl_w3cbnbrh0000gn/T//ch.elf.rjwPRd.ltrans0.ltrans.o
 .rodata.oslib_test_sequence_006_array
                0x0000000008011da0        0x8 /var/folders/yg/3nxcpv294hvfwgl_w3cbnbrh0000gn/T//ch.elf.rjwPRd.ltrans0.ltrans.o
 .rodata.oslib_test_sequence_007
                0x0000000008011da8        0x8 /var/folders/yg/3nxcpv294hvfwgl_w3cbnbrh0000gn/T//ch.elf.rjwPRd.ltrans0.ltrans.o
 .rodata.oslib_test_sequence_007_array
                0x0000000008011db0       0x10 /var/folders/yg/3nxcpv294hvfwgl_w3cbnbrh0000gn/T//ch.elf.rjwPRd.ltrans0.ltrans.o
 .rodata.oslib_test_sequence_008
                0x0000000008011dc0        0x8 /var/folders/yg/3nxcpv294hvfwgl_w3cbnbrh0000gn/T//ch.elf.rjwPRd.ltrans0.ltrans.o
 .rodata.oslib_test_sequence_008_array
                0x0000000008011dc8        0xc /var/folders/yg/3nxcpv294hvfwgl_w3cbnbrh0000gn/T//ch.elf.rjwPRd.ltrans0.ltrans.o
 .rodata.oslib_test_sequence_009
                0x0000000008011dd4        0x8 /var/folders/yg/3nxcpv294hvfwgl_w3cbnbrh0000gn/T//ch.elf.rjwPRd.ltrans0.ltrans.o
 .rodata.oslib_test_sequence_009_array
                0x0000000008011ddc       0x1c /var/folders/yg/3nxcpv294hvfwgl_w3cbnbrh0000gn/T//ch.elf.rjwPRd.ltrans0.ltrans.o
 .rodata.oslib_test_suite
                0x0000000008011df8        0x8 /var/folders/yg/3nxcpv294hvfwgl_w3cbnbrh0000gn/T//ch.elf.rjwPRd.ltrans0.ltrans.o
 .rodata.oslib_test_suite_array
                0x0000000008011e00       0x28 /var/folders/yg/3nxcpv294hvfwgl_w3cbnbrh0000gn/T//ch.elf.rjwPRd.ltrans0.ltrans.o
 .rodata.ram_areas
                0x0000000008011e28       0x80 /var/folders/yg/3nxcpv294hvfwgl_w3cbnbrh0000gn/T//ch.elf.rjwPRd.ltrans0.ltrans.o
 .rodata.rt_test_001_001
                0x0000000008011ea8       0x10 /var/folders/yg/3nxcpv294hvfwgl_w3cbnbrh0000gn/T//ch.elf.rjwPRd.ltrans0.ltrans.o
 .rodata.rt_test_001_002
                0x0000000008011eb8       0x10 /var/folders/yg/3nxcpv294hvfwgl_w3cbnbrh0000gn/T//ch.elf.rjwPRd.ltrans0.ltrans.o
 .rodata.rt_test_001_003
                0x0000000008011ec8       0x10 /var/folders/yg/3nxcpv294hvfwgl_w3cbnbrh0000gn/T//ch.elf.rjwPRd.ltrans0.ltrans.o
 .rodata.rt_test_002_001
                0x0000000008011ed8       0x10 /var/folders/yg/3nxcpv294hvfwgl_w3cbnbrh0000gn/T//ch.elf.rjwPRd.ltrans0.ltrans.o
 .rodata.rt_test_002_002
                0x0000000008011ee8       0x10 /var/folders/yg/3nxcpv294hvfwgl_w3cbnbrh0000gn/T//ch.elf.rjwPRd.ltrans0.ltrans.o
 .rodata.rt_test_002_003
                0x0000000008011ef8       0x10 /var/folders/yg/3nxcpv294hvfwgl_w3cbnbrh0000gn/T//ch.elf.rjwPRd.ltrans0.ltrans.o
 .rodata.rt_test_003_001
                0x0000000008011f08       0x10 /var/folders/yg/3nxcpv294hvfwgl_w3cbnbrh0000gn/T//ch.elf.rjwPRd.ltrans0.ltrans.o
 .rodata.rt_test_003_002
                0x0000000008011f18       0x10 /var/folders/yg/3nxcpv294hvfwgl_w3cbnbrh0000gn/T//ch.elf.rjwPRd.ltrans0.ltrans.o
 .rodata.rt_test_004_001
                0x0000000008011f28       0x10 /var/folders/yg/3nxcpv294hvfwgl_w3cbnbrh0000gn/T//ch.elf.rjwPRd.ltrans0.ltrans.o
 .rodata.rt_test_005_001
                0x0000000008011f38       0x10 /var/folders/yg/3nxcpv294hvfwgl_w3cbnbrh0000gn/T//ch.elf.rjwPRd.ltrans0.ltrans.o
 .rodata.rt_test_005_002
                0x0000000008011f48       0x10 /var/folders/yg/3nxcpv294hvfwgl_w3cbnbrh0000gn/T//ch.elf.rjwPRd.ltrans0.ltrans.o
 .rodata.rt_test_005_003
                0x0000000008011f58       0x10 /var/folders/yg/3nxcpv294hvfwgl_w3cbnbrh0000gn/T//ch.elf.rjwPRd.ltrans0.ltrans.o
 .rodata.rt_test_005_004
                0x0000000008011f68       0x10 /var/folders/yg/3nxcpv294hvfwgl_w3cbnbrh0000gn/T//ch.elf.rjwPRd.ltrans0.ltrans.o
 .rodata.rt_test_006_001
                0x0000000008011f78       0x10 /var/folders/yg/3nxcpv294hvfwgl_w3cbnbrh0000gn/T//ch.elf.rjwPRd.ltrans0.ltrans.o
 .rodata.rt_test_007_001
                0x0000000008011f88       0x10 /var/folders/yg/3nxcpv294hvfwgl_w3cbnbrh0000gn/T//ch.elf.rjwPRd.ltrans0.ltrans.o
 .rodata.rt_test_007_002
                0x0000000008011f98       0x10 /var/folders/yg/3nxcpv294hvfwgl_w3cbnbrh0000gn/T//ch.elf.rjwPRd.ltrans0.ltrans.o
 .rodata.rt_test_007_003
                0x0000000008011fa8       0x10 /var/folders/yg/3nxcpv294hvfwgl_w3cbnbrh0000gn/T//ch.elf.rjwPRd.ltrans0.ltrans.o
 .rodata.rt_test_007_004
                0x0000000008011fb8       0x10 /var/folders/yg/3nxcpv294hvfwgl_w3cbnbrh0000gn/T//ch.elf.rjwPRd.ltrans0.ltrans.o
 .rodata.rt_test_007_005
                0x0000000008011fc8       0x10 /var/folders/yg/3nxcpv294hvfwgl_w3cbnbrh0000gn/T//ch.elf.rjwPRd.ltrans0.ltrans.o
 .rodata.rt_test_007_006
                0x0000000008011fd8       0x10 /var/folders/yg/3nxcpv294hvfwgl_w3cbnbrh0000gn/T//ch.elf.rjwPRd.ltrans0.ltrans.o
 .rodata.rt_test_008_001
                0x0000000008011fe8       0x10 /var/folders/yg/3nxcpv294hvfwgl_w3cbnbrh0000gn/T//ch.elf.rjwPRd.ltrans0.ltrans.o
 .rodata.rt_test_008_004
                0x0000000008011ff8       0x10 /var/folders/yg/3nxcpv294hvfwgl_w3cbnbrh0000gn/T//ch.elf.rjwPRd.ltrans0.ltrans.o
 .rodata.rt_test_008_005
                0x0000000008012008       0x10 /var/folders/yg/3nxcpv294hvfwgl_w3cbnbrh0000gn/T//ch.elf.rjwPRd.ltrans0.ltrans.o
 .rodata.rt_test_008_007
                0x0000000008012018       0x10 /var/folders/yg/3nxcpv294hvfwgl_w3cbnbrh0000gn/T//ch.elf.rjwPRd.ltrans0.ltrans.o
 .rodata.rt_test_008_008
                0x0000000008012028       0x10 /var/folders/yg/3nxcpv294hvfwgl_w3cbnbrh0000gn/T//ch.elf.rjwPRd.ltrans0.ltrans.o
 .rodata.rt_test_008_009
                0x0000000008012038       0x10 /var/folders/yg/3nxcpv294hvfwgl_w3cbnbrh0000gn/T//ch.elf.rjwPRd.ltrans0.ltrans.o
 .rodata.rt_test_009_001
                0x0000000008012048       0x10 /var/folders/yg/3nxcpv294hvfwgl_w3cbnbrh0000gn/T//ch.elf.rjwPRd.ltrans0.ltrans.o
 .rodata.rt_test_010_001
                0x0000000008012058       0x10 /var/folders/yg/3nxcpv294hvfwgl_w3cbnbrh0000gn/T//ch.elf.rjwPRd.ltrans0.ltrans.o
 .rodata.rt_test_010_002
                0x0000000008012068       0x10 /var/folders/yg/3nxcpv294hvfwgl_w3cbnbrh0000gn/T//ch.elf.rjwPRd.ltrans0.ltrans.o
 .rodata.rt_test_010_003
                0x0000000008012078       0x10 /var/folders/yg/3nxcpv294hvfwgl_w3cbnbrh0000gn/T//ch.elf.rjwPRd.ltrans0.ltrans.o
 .rodata.rt_test_010_004
                0x0000000008012088       0x10 /var/folders/yg/3nxcpv294hvfwgl_w3cbnbrh0000gn/T//ch.elf.rjwPRd.ltrans0.ltrans.o
 .rodata.rt_test_010_005
                0x0000000008012098       0x10 /var/folders/yg/3nxcpv294hvfwgl_w3cbnbrh0000gn/T//ch.elf.rjwPRd.ltrans0.ltrans.o
 .rodata.rt_test_010_006
                0x00000000080120a8       0x10 /var/folders/yg/3nxcpv294hvfwgl_w3cbnbrh0000gn/T//ch.elf.rjwPRd.ltrans0.ltrans.o
 .rodata.rt_test_010_007
                0x00000000080120b8       0x10 /var/folders/yg/3nxcpv294hvfwgl_w3cbnbrh0000gn/T//ch.elf.rjwPRd.ltrans0.ltrans.o
 .rodata.rt_test_011_001
                0x00000000080120c8       0x10 /var/folders/yg/3nxcpv294hvfwgl_w3cbnbrh0000gn/T//ch.elf.rjwPRd.ltrans0.ltrans.o
 .rodata.rt_test_011_002
                0x00000000080120d8       0x10 /var/folders/yg/3nxcpv294hvfwgl_w3cbnbrh0000gn/T//ch.elf.rjwPRd.ltrans0.ltrans.o
 .rodata.rt_test_012_001
                0x00000000080120e8       0x10 /var/folders/yg/3nxcpv294hvfwgl_w3cbnbrh0000gn/T//ch.elf.rjwPRd.ltrans0.ltrans.o
 .rodata.rt_test_012_002
                0x00000000080120f8       0x10 /var/folders/yg/3nxcpv294hvfwgl_w3cbnbrh0000gn/T//ch.elf.rjwPRd.ltrans0.ltrans.o
 .rodata.rt_test_012_003
                0x0000000008012108       0x10 /var/folders/yg/3nxcpv294hvfwgl_w3cbnbrh0000gn/T//ch.elf.rjwPRd.ltrans0.ltrans.o
 .rodata.rt_test_012_004
                0x0000000008012118       0x10 /var/folders/yg/3nxcpv294hvfwgl_w3cbnbrh0000gn/T//ch.elf.rjwPRd.ltrans0.ltrans.o
 .rodata.rt_test_012_005
                0x0000000008012128       0x10 /var/folders/yg/3nxcpv294hvfwgl_w3cbnbrh0000gn/T//ch.elf.rjwPRd.ltrans0.ltrans.o
 .rodata.rt_test_012_006
                0x0000000008012138       0x10 /var/folders/yg/3nxcpv294hvfwgl_w3cbnbrh0000gn/T//ch.elf.rjwPRd.ltrans0.ltrans.o
 .rodata.rt_test_012_007
                0x0000000008012148       0x10 /var/folders/yg/3nxcpv294hvfwgl_w3cbnbrh0000gn/T//ch.elf.rjwPRd.ltrans0.ltrans.o
 .rodata.rt_test_012_008
                0x0000000008012158       0x10 /var/folders/yg/3nxcpv294hvfwgl_w3cbnbrh0000gn/T//ch.elf.rjwPRd.ltrans0.ltrans.o
 .rodata.rt_test_012_009
                0x0000000008012168       0x10 /var/folders/yg/3nxcpv294hvfwgl_w3cbnbrh0000gn/T//ch.elf.rjwPRd.ltrans0.ltrans.o
 .rodata.rt_test_012_010
                0x0000000008012178       0x10 /var/folders/yg/3nxcpv294hvfwgl_w3cbnbrh0000gn/T//ch.elf.rjwPRd.ltrans0.ltrans.o
 .rodata.rt_test_012_011
                0x0000000008012188       0x10 /var/folders/yg/3nxcpv294hvfwgl_w3cbnbrh0000gn/T//ch.elf.rjwPRd.ltrans0.ltrans.o
 .rodata.rt_test_012_012
                0x0000000008012198       0x10 /var/folders/yg/3nxcpv294hvfwgl_w3cbnbrh0000gn/T//ch.elf.rjwPRd.ltrans0.ltrans.o
 .rodata.rt_test_sequence_001
                0x00000000080121a8        0x8 /var/folders/yg/3nxcpv294hvfwgl_w3cbnbrh0000gn/T//ch.elf.rjwPRd.ltrans0.ltrans.o
 .rodata.rt_test_sequence_001_array
                0x00000000080121b0       0x10 /var/folders/yg/3nxcpv294hvfwgl_w3cbnbrh0000gn/T//ch.elf.rjwPRd.ltrans0.ltrans.o
 .rodata.rt_test_sequence_002
                0x00000000080121c0        0x8 /var/folders/yg/3nxcpv294hvfwgl_w3cbnbrh0000gn/T//ch.elf.rjwPRd.ltrans0.ltrans.o
 .rodata.rt_test_sequence_002_array
                0x00000000080121c8       0x10 /var/folders/yg/3nxcpv294hvfwgl_w3cbnbrh0000gn/T//ch.elf.rjwPRd.ltrans0.ltrans.o
 .rodata.rt_test_sequence_003
                0x00000000080121d8        0x8 /var/folders/yg/3nxcpv294hvfwgl_w3cbnbrh0000gn/T//ch.elf.rjwPRd.ltrans0.ltrans.o
 .rodata.rt_test_sequence_003_array
                0x00000000080121e0        0xc /var/folders/yg/3nxcpv294hvfwgl_w3cbnbrh0000gn/T//ch.elf.rjwPRd.ltrans0.ltrans.o
 .rodata.rt_test_sequence_004
                0x00000000080121ec        0x8 /var/folders/yg/3nxcpv294hvfwgl_w3cbnbrh0000gn/T//ch.elf.rjwPRd.ltrans0.ltrans.o
 .rodata.rt_test_sequence_004_array
                0x00000000080121f4        0x8 /var/folders/yg/3nxcpv294hvfwgl_w3cbnbrh0000gn/T//ch.elf.rjwPRd.ltrans0.ltrans.o
 .rodata.rt_test_sequence_005
                0x00000000080121fc        0x8 /var/folders/yg/3nxcpv294hvfwgl_w3cbnbrh0000gn/T//ch.elf.rjwPRd.ltrans0.ltrans.o
 .rodata.rt_test_sequence_005_array
                0x0000000008012204       0x14 /var/folders/yg/3nxcpv294hvfwgl_w3cbnbrh0000gn/T//ch.elf.rjwPRd.ltrans0.ltrans.o
 .rodata.rt_test_sequence_006
                0x0000000008012218        0x8 /var/folders/yg/3nxcpv294hvfwgl_w3cbnbrh0000gn/T//ch.elf.rjwPRd.ltrans0.ltrans.o
 .rodata.rt_test_sequence_006_array
                0x0000000008012220        0x8 /var/folders/yg/3nxcpv294hvfwgl_w3cbnbrh0000gn/T//ch.elf.rjwPRd.ltrans0.ltrans.o
 .rodata.rt_test_sequence_007
                0x0000000008012228        0x8 /var/folders/yg/3nxcpv294hvfwgl_w3cbnbrh0000gn/T//ch.elf.rjwPRd.ltrans0.ltrans.o
 .rodata.rt_test_sequence_007_array
                0x0000000008012230       0x1c /var/folders/yg/3nxcpv294hvfwgl_w3cbnbrh0000gn/T//ch.elf.rjwPRd.ltrans0.ltrans.o
 .rodata.rt_test_sequence_008
                0x000000000801224c        0x8 /var/folders/yg/3nxcpv294hvfwgl_w3cbnbrh0000gn/T//ch.elf.rjwPRd.ltrans0.ltrans.o
 .rodata.rt_test_sequence_008_array
                0x0000000008012254       0x1c /var/folders/yg/3nxcpv294hvfwgl_w3cbnbrh0000gn/T//ch.elf.rjwPRd.ltrans0.ltrans.o
 .rodata.rt_test_sequence_009
                0x0000000008012270        0x8 /var/folders/yg/3nxcpv294hvfwgl_w3cbnbrh0000gn/T//ch.elf.rjwPRd.ltrans0.ltrans.o
 .rodata.rt_test_sequence_009_array
                0x0000000008012278        0x8 /var/folders/yg/3nxcpv294hvfwgl_w3cbnbrh0000gn/T//ch.elf.rjwPRd.ltrans0.ltrans.o
 .rodata.rt_test_sequence_010
                0x0000000008012280        0x8 /var/folders/yg/3nxcpv294hvfwgl_w3cbnbrh0000gn/T//ch.elf.rjwPRd.ltrans0.ltrans.o
 .rodata.rt_test_sequence_010_array
                0x0000000008012288       0x20 /var/folders/yg/3nxcpv294hvfwgl_w3cbnbrh0000gn/T//ch.elf.rjwPRd.ltrans0.ltrans.o
 .rodata.rt_test_sequence_011
                0x00000000080122a8        0x8 /var/folders/yg/3nxcpv294hvfwgl_w3cbnbrh0000gn/T//ch.elf.rjwPRd.ltrans0.ltrans.o
 .rodata.rt_test_sequence_011_array
                0x00000000080122b0        0xc /var/folders/yg/3nxcpv294hvfwgl_w3cbnbrh0000gn/T//ch.elf.rjwPRd.ltrans0.ltrans.o
 .rodata.rt_test_sequence_012
                0x00000000080122bc        0x8 /var/folders/yg/3nxcpv294hvfwgl_w3cbnbrh0000gn/T//ch.elf.rjwPRd.ltrans0.ltrans.o
 .rodata.rt_test_sequence_012_array
                0x00000000080122c4       0x34 /var/folders/yg/3nxcpv294hvfwgl_w3cbnbrh0000gn/T//ch.elf.rjwPRd.ltrans0.ltrans.o
 .rodata.rt_test_suite
                0x00000000080122f8        0x8 /var/folders/yg/3nxcpv294hvfwgl_w3cbnbrh0000gn/T//ch.elf.rjwPRd.ltrans0.ltrans.o
 .rodata.rt_test_suite_array
                0x0000000008012300       0x34 /var/folders/yg/3nxcpv294hvfwgl_w3cbnbrh0000gn/T//ch.elf.rjwPRd.ltrans0.ltrans.o
 .rodata.shell_local_commands
                0x0000000008012334       0x40 /var/folders/yg/3nxcpv294hvfwgl_w3cbnbrh0000gn/T//ch.elf.rjwPRd.ltrans0.ltrans.o
 .rodata.states.0
                0x0000000008012374       0x40 /var/folders/yg/3nxcpv294hvfwgl_w3cbnbrh0000gn/T//ch.elf.rjwPRd.ltrans0.ltrans.o
 .rodata.vcom_configuration_descriptor
                0x00000000080123b4        0x8 /var/folders/yg/3nxcpv294hvfwgl_w3cbnbrh0000gn/T//ch.elf.rjwPRd.ltrans0.ltrans.o
 .rodata.vcom_configuration_descriptor_data
                0x00000000080123bc       0x43 /var/folders/yg/3nxcpv294hvfwgl_w3cbnbrh0000gn/T//ch.elf.rjwPRd.ltrans0.ltrans.o
 *fill*         0x00000000080123ff        0x1 
 .rodata.vcom_device_descriptor
                0x0000000008012400        0x8 /var/folders/yg/3nxcpv294hvfwgl_w3cbnbrh0000gn/T//ch.elf.rjwPRd.ltrans0.ltrans.o
 .rodata.vcom_device_descriptor_data
                0x0000000008012408       0x12 /var/folders/yg/3nxcpv294hvfwgl_w3cbnbrh0000gn/T//ch.elf.rjwPRd.ltrans0.ltrans.o
 *fill*         0x000000000801241a        0x2 
 .rodata.vcom_string0
                0x000000000801241c        0x4 /var/folders/yg/3nxcpv294hvfwgl_w3cbnbrh0000gn/T//ch.elf.rjwPRd.ltrans0.ltrans.o
 .rodata.vcom_string1
                0x0000000008012420       0x26 /var/folders/yg/3nxcpv294hvfwgl_w3cbnbrh0000gn/T//ch.elf.rjwPRd.ltrans0.ltrans.o
 *fill*         0x0000000008012446        0x2 
 .rodata.vcom_string2
                0x0000000008012448       0x38 /var/folders/yg/3nxcpv294hvfwgl_w3cbnbrh0000gn/T//ch.elf.rjwPRd.ltrans0.ltrans.o
 .rodata.vcom_string3
                0x0000000008012480        0x8 /var/folders/yg/3nxcpv294hvfwgl_w3cbnbrh0000gn/T//ch.elf.rjwPRd.ltrans0.ltrans.o
 .rodata.vcom_strings
                0x0000000008012488       0x20 /var/folders/yg/3nxcpv294hvfwgl_w3cbnbrh0000gn/T//ch.elf.rjwPRd.ltrans0.ltrans.o
 .rodata.wa     0x00000000080124a8       0x14 /var/folders/yg/3nxcpv294hvfwgl_w3cbnbrh0000gn/T//ch.elf.rjwPRd.ltrans0.ltrans.o
                0x00000000080124a8                wa
 .rodata.zero_status
                0x00000000080124bc        0x2 /var/folders/yg/3nxcpv294hvfwgl_w3cbnbrh0000gn/T//ch.elf.rjwPRd.ltrans0.ltrans.o
 *fill*         0x00000000080124be        0x2 
 .rodata.oslib_test_007_001_execute.lto_priv.0.str1.4
                0x00000000080124c0       0x35 /var/folders/yg/3nxcpv294hvfwgl_w3cbnbrh0000gn/T//ch.elf.rjwPRd.ltrans1.ltrans.o
 *fill*         0x00000000080124f5        0x3 
 .rodata.Thread1.lto_priv.2.str1.4
                0x00000000080124f8        0x8 /var/folders/yg/3nxcpv294hvfwgl_w3cbnbrh0000gn/T//ch.elf.rjwPRd.ltrans1.ltrans.o
 .rodata.rt_test_012_012_execute.lto_priv.0.str1.4
                0x0000000008012500       0x95 /var/folders/yg/3nxcpv294hvfwgl_w3cbnbrh0000gn/T//ch.elf.rjwPRd.ltrans1.ltrans.o
                                         0xa5 (size before relaxing)
 *fill*         0x0000000008012595        0x3 
 .rodata.oslib_test_001_002_execute.lto_priv.0.str1.4
                0x0000000008012598       0x3a /var/folders/yg/3nxcpv294hvfwgl_w3cbnbrh0000gn/T//ch.elf.rjwPRd.ltrans1.ltrans.o
                                        0x119 (size before relaxing)
 *fill*         0x00000000080125d2        0x2 
 .rodata.oslib_test_001_003_execute.lto_priv.0.str1.4
                0x00000000080125d4      0x2bd /var/folders/yg/3nxcpv294hvfwgl_w3cbnbrh0000gn/T//ch.elf.rjwPRd.ltrans1.ltrans.o
 *fill*         0x0000000008012891        0x3 
 .rodata.rt_test_012_010_execute.lto_priv.0.str1.4
                0x0000000008012894        0xf /var/folders/yg/3nxcpv294hvfwgl_w3cbnbrh0000gn/T//ch.elf.rjwPRd.ltrans1.ltrans.o
                                         0x1f (size before relaxing)
 *fill*         0x00000000080128a3        0x1 
 .rodata.rt_test_012_011_execute.lto_priv.0.str1.4
                0x00000000080128a4        0xf /var/folders/yg/3nxcpv294hvfwgl_w3cbnbrh0000gn/T//ch.elf.rjwPRd.ltrans1.ltrans.o
 *fill*         0x00000000080128b3        0x1 
 .rodata.oslib_test_006_001_execute.lto_priv.0.str1.4
                0x00000000080128b4       0x5d /var/folders/yg/3nxcpv294hvfwgl_w3cbnbrh0000gn/T//ch.elf.rjwPRd.ltrans1.ltrans.o
                                         0x65 (size before relaxing)
 *fill*         0x0000000008012911        0x3 
 .rodata.oslib_test_002_001_execute.lto_priv.0.str1.4
                0x0000000008012914       0xc3 /var/folders/yg/3nxcpv294hvfwgl_w3cbnbrh0000gn/T//ch.elf.rjwPRd.ltrans1.ltrans.o
                                         0xe1 (size before relaxing)
 *fill*         0x00000000080129d7        0x1 
 .rodata.oslib_test_004_001_execute.lto_priv.0.str1.4
                0x00000000080129d8       0x18 /var/folders/yg/3nxcpv294hvfwgl_w3cbnbrh0000gn/T//ch.elf.rjwPRd.ltrans1.ltrans.o
 .rodata.oslib_test_005_001_execute.lto_priv.0.str1.4
                0x00000000080129f0       0x46 /var/folders/yg/3nxcpv294hvfwgl_w3cbnbrh0000gn/T//ch.elf.rjwPRd.ltrans1.ltrans.o
 *fill*         0x0000000008012a36        0x2 
 .rodata.oslib_test_008_001_execute.lto_priv.0.str1.4
                0x0000000008012a38       0x75 /var/folders/yg/3nxcpv294hvfwgl_w3cbnbrh0000gn/T//ch.elf.rjwPRd.ltrans1.ltrans.o
                                         0x85 (size before relaxing)
 *fill*         0x0000000008012aad        0x3 
 .rodata.chFactoryCreateSemaphore.constprop.0.str1.4
                0x0000000008012ab0        0x6 /var/folders/yg/3nxcpv294hvfwgl_w3cbnbrh0000gn/T//ch.elf.rjwPRd.ltrans1.ltrans.o
 *fill*         0x0000000008012ab6        0x2 
 .rodata.oslib_test_009_005_teardown.lto_priv.0.str1.4
                0x0000000008012ab8        0x7 /var/folders/yg/3nxcpv294hvfwgl_w3cbnbrh0000gn/T//ch.elf.rjwPRd.ltrans1.ltrans.o
 *fill*         0x0000000008012abf        0x1 
 .rodata.oslib_test_009_001_teardown.lto_priv.0.str1.4
                0x0000000008012ac0        0x6 /var/folders/yg/3nxcpv294hvfwgl_w3cbnbrh0000gn/T//ch.elf.rjwPRd.ltrans1.ltrans.o
 *fill*         0x0000000008012ac6        0x2 
 .rodata.oslib_test_009_002_teardown.lto_priv.0.str1.4
                0x0000000008012ac8        0x6 /var/folders/yg/3nxcpv294hvfwgl_w3cbnbrh0000gn/T//ch.elf.rjwPRd.ltrans1.ltrans.o
 *fill*         0x0000000008012ace        0x2 
 .rodata.oslib_test_009_004_teardown.lto_priv.0.str1.4
                0x0000000008012ad0        0x6 /var/folders/yg/3nxcpv294hvfwgl_w3cbnbrh0000gn/T//ch.elf.rjwPRd.ltrans1.ltrans.o
 *fill*         0x0000000008012ad6        0x2 
 .rodata.oslib_test_009_006_teardown.lto_priv.0.str1.4
                0x0000000008012ad8        0x7 /var/folders/yg/3nxcpv294hvfwgl_w3cbnbrh0000gn/T//ch.elf.rjwPRd.ltrans1.ltrans.o
 *fill*         0x0000000008012adf        0x1 
 .rodata.oslib_test_009_001_execute.lto_priv.0.str1.4
                0x0000000008012ae0       0x6c /var/folders/yg/3nxcpv294hvfwgl_w3cbnbrh0000gn/T//ch.elf.rjwPRd.ltrans1.ltrans.o
                                         0x74 (size before relaxing)
 .rodata.oslib_test_009_006_execute.lto_priv.0.str1.4
                0x0000000008012b4c       0x1b /var/folders/yg/3nxcpv294hvfwgl_w3cbnbrh0000gn/T//ch.elf.rjwPRd.ltrans1.ltrans.o
 *fill*         0x0000000008012b67        0x1 
 .rodata.InsertHandler.str1.4
                0x0000000008012b68        0x2 /var/folders/yg/3nxcpv294hvfwgl_w3cbnbrh0000gn/T//ch.elf.rjwPRd.ltrans1.ltrans.o
 *fill*         0x0000000008012b6a        0x2 
 .rodata.scan_files.constprop.0.str1.4
                0x0000000008012b6c       0x1c /var/folders/yg/3nxcpv294hvfwgl_w3cbnbrh0000gn/T//ch.elf.rjwPRd.ltrans1.ltrans.o
 .rodata.cmd_tree.str1.4
                0x0000000008012b88       0xb4 /var/folders/yg/3nxcpv294hvfwgl_w3cbnbrh0000gn/T//ch.elf.rjwPRd.ltrans1.ltrans.o
 .rodata.chThdCreateStatic.constprop.0.str1.4
                0x0000000008012c3c        0x7 /var/folders/yg/3nxcpv294hvfwgl_w3cbnbrh0000gn/T//ch.elf.rjwPRd.ltrans1.ltrans.o
 .rodata.rt_test_012_004_execute.lto_priv.0.str1.4
                0x0000000008012c43        0xa /var/folders/yg/3nxcpv294hvfwgl_w3cbnbrh0000gn/T//ch.elf.rjwPRd.ltrans1.ltrans.o
 *fill*         0x0000000008012c43        0x1 
 .rodata.rt_test_012_005_execute.lto_priv.0.str1.4
                0x0000000008012c44        0xb /var/folders/yg/3nxcpv294hvfwgl_w3cbnbrh0000gn/T//ch.elf.rjwPRd.ltrans1.ltrans.o
 *fill*         0x0000000008012c4f        0x1 
 .rodata.rt_test_012_007_execute.lto_priv.0.str1.4
                0x0000000008012c50       0x11 /var/folders/yg/3nxcpv294hvfwgl_w3cbnbrh0000gn/T//ch.elf.rjwPRd.ltrans1.ltrans.o
 *fill*         0x0000000008012c61        0x3 
 .rodata.main.str1.4
                0x0000000008012c64        0x5 /var/folders/yg/3nxcpv294hvfwgl_w3cbnbrh0000gn/T//ch.elf.rjwPRd.ltrans1.ltrans.o
                                          0xe (size before relaxing)
 *fill*         0x0000000008012c69        0x3 
 .rodata.rt_test_012_009_execute.lto_priv.0.str1.4
                0x0000000008012c6c        0xa /var/folders/yg/3nxcpv294hvfwgl_w3cbnbrh0000gn/T//ch.elf.rjwPRd.ltrans1.ltrans.o
 *fill*         0x0000000008012c76        0x2 
 .rodata.oslib_test_003_001_execute.lto_priv.0.str1.4
                0x0000000008012c78       0x33 /var/folders/yg/3nxcpv294hvfwgl_w3cbnbrh0000gn/T//ch.elf.rjwPRd.ltrans1.ltrans.o
 *fill*         0x0000000008012cab        0x1 
 .rodata.test_execute_inner.isra.0.str1.4
                0x0000000008012cac      0x1a3 /var/folders/yg/3nxcpv294hvfwgl_w3cbnbrh0000gn/T//ch.elf.rjwPRd.ltrans1.ltrans.o
                                        0x1e7 (size before relaxing)
 *fill*         0x0000000008012e4f        0x1 
 .rodata.str1.4
                0x0000000008012e50        0xb /var/folders/yg/3nxcpv294hvfwgl_w3cbnbrh0000gn/T//ch.elf.rjwPRd.ltrans1.ltrans.o
 *fill*         0x0000000008012e5b        0x1 
 .rodata.ExCvt  0x0000000008012e5c       0x80 /var/folders/yg/3nxcpv294hvfwgl_w3cbnbrh0000gn/T//ch.elf.rjwPRd.ltrans1.ltrans.o
 .rodata.LfnOfs
                0x0000000008012edc        0xd /var/folders/yg/3nxcpv294hvfwgl_w3cbnbrh0000gn/T//ch.elf.rjwPRd.ltrans1.ltrans.o
 *fill*         0x0000000008012ee9        0x3 
 .rodata.ch_core0_cfg
                0x0000000008012eec       0x14 /var/folders/yg/3nxcpv294hvfwgl_w3cbnbrh0000gn/T//ch.elf.rjwPRd.ltrans1.ltrans.o
 .rodata.ch_debug
                0x0000000008012f00       0x16 /var/folders/yg/3nxcpv294hvfwgl_w3cbnbrh0000gn/T//ch.elf.rjwPRd.ltrans1.ltrans.o
 *fill*         0x0000000008012f16        0x2 
 .rodata.commands
                0x0000000008012f18       0x10 /var/folders/yg/3nxcpv294hvfwgl_w3cbnbrh0000gn/T//ch.elf.rjwPRd.ltrans1.ltrans.o
 .rodata.evhndl.1
                0x0000000008012f28        0xc /var/folders/yg/3nxcpv294hvfwgl_w3cbnbrh0000gn/T//ch.elf.rjwPRd.ltrans1.ltrans.o
 .rodata.pipe_pattern
                0x0000000008012f34       0x11 /var/folders/yg/3nxcpv294hvfwgl_w3cbnbrh0000gn/T//ch.elf.rjwPRd.ltrans1.ltrans.o
 *fill*         0x0000000008012f45        0x3 
 .rodata.sdc_default_cfg
                0x0000000008012f48        0x1 /var/folders/yg/3nxcpv294hvfwgl_w3cbnbrh0000gn/T//ch.elf.rjwPRd.ltrans1.ltrans.o
 *fill*         0x0000000008012f49        0x3 
 .rodata.sdc_vmt
                0x0000000008012f4c       0x24 /var/folders/yg/3nxcpv294hvfwgl_w3cbnbrh0000gn/T//ch.elf.rjwPRd.ltrans1.ltrans.o
 .rodata.serusbcfg
                0x0000000008012f70        0x8 /var/folders/yg/3nxcpv294hvfwgl_w3cbnbrh0000gn/T//ch.elf.rjwPRd.ltrans1.ltrans.o
 .rodata.shell_cfg1
                0x0000000008012f78        0x8 /var/folders/yg/3nxcpv294hvfwgl_w3cbnbrh0000gn/T//ch.elf.rjwPRd.ltrans1.ltrans.o
 .rodata.uc850  0x0000000008012f80      0x100 /var/folders/yg/3nxcpv294hvfwgl_w3cbnbrh0000gn/T//ch.elf.rjwPRd.ltrans1.ltrans.o
 .rodata.usbcfg
                0x0000000008013080       0x10 /var/folders/yg/3nxcpv294hvfwgl_w3cbnbrh0000gn/T//ch.elf.rjwPRd.ltrans1.ltrans.o
 .rodata.vmt    0x0000000008013090       0x28 /var/folders/yg/3nxcpv294hvfwgl_w3cbnbrh0000gn/T//ch.elf.rjwPRd.ltrans1.ltrans.o
                0x00000000080130b8                . = ALIGN (0x4)
                0x00000000080130b8                __rodata_end__ = .

.rel.dyn        0x00000000080130b8        0x0
 .rel.iplt      0x00000000080130b8        0x0 ./build/obj/crt0_v7m.o

.ARM.extab
 *(.ARM.extab* .gnu.linkonce.armextab.*)

.ARM.exidx      0x00000000080130b8        0x0
                0x00000000080130b8                __exidx_base__ = .
                0x00000000080130b8                __exidx_start = .
 *(.ARM.exidx* .gnu.linkonce.armexidx.*)
                0x00000000080130b8                __exidx_end__ = .
                0x00000000080130b8                __exidx_end = .

.eh_frame_hdr
 *(.eh_frame_hdr)

.eh_frame
 *(.eh_frame)

.data           0x0000000020000800       0xe4 load address 0x00000000080130b8
                [!provide]                        PROVIDE (_textdata = LOADADDR (.data))
                [!provide]                        PROVIDE (_data = .)
                0x00000000080130b8                __textdata_base__ = LOADADDR (.data)
                0x0000000020000800                __data_base__ = .
 *(.data)
 *(.data.*)
 .data.c1       0x0000000020000800        0x8 /var/folders/yg/3nxcpv294hvfwgl_w3cbnbrh0000gn/T//ch.elf.rjwPRd.ltrans0.ltrans.o
 .data.es1      0x0000000020000808        0x4 /var/folders/yg/3nxcpv294hvfwgl_w3cbnbrh0000gn/T//ch.elf.rjwPRd.ltrans0.ltrans.o
 .data.es2      0x000000002000080c        0x4 /var/folders/yg/3nxcpv294hvfwgl_w3cbnbrh0000gn/T//ch.elf.rjwPRd.ltrans0.ltrans.o
 .data.linecoding
                0x0000000020000810        0x7 /var/folders/yg/3nxcpv294hvfwgl_w3cbnbrh0000gn/T//ch.elf.rjwPRd.ltrans0.ltrans.o
 *fill*         0x0000000020000817        0x1 
 .data.m1       0x0000000020000818       0x10 /var/folders/yg/3nxcpv294hvfwgl_w3cbnbrh0000gn/T//ch.elf.rjwPRd.ltrans0.ltrans.o
 .data.m2       0x0000000020000828       0x10 /var/folders/yg/3nxcpv294hvfwgl_w3cbnbrh0000gn/T//ch.elf.rjwPRd.ltrans0.ltrans.o
 .data.gmp1     0x0000000020000838       0x1c /var/folders/yg/3nxcpv294hvfwgl_w3cbnbrh0000gn/T//ch.elf.rjwPRd.ltrans1.ltrans.o
 .data.mb1      0x0000000020000854       0x28 /var/folders/yg/3nxcpv294hvfwgl_w3cbnbrh0000gn/T//ch.elf.rjwPRd.ltrans1.ltrans.o
 .data.mp1.lto_priv.1
                0x000000002000087c       0x10 /var/folders/yg/3nxcpv294hvfwgl_w3cbnbrh0000gn/T//ch.elf.rjwPRd.ltrans1.ltrans.o
 .data.myobj.0  0x000000002000088c        0x4 /var/folders/yg/3nxcpv294hvfwgl_w3cbnbrh0000gn/T//ch.elf.rjwPRd.ltrans1.ltrans.o
 .data.myobj.1  0x0000000020000890        0x4 /var/folders/yg/3nxcpv294hvfwgl_w3cbnbrh0000gn/T//ch.elf.rjwPRd.ltrans1.ltrans.o
 .data.pipe1    0x0000000020000894       0x50 /var/folders/yg/3nxcpv294hvfwgl_w3cbnbrh0000gn/T//ch.elf.rjwPRd.ltrans1.ltrans.o
 *(.ramtext)
                0x00000000200008e4                . = ALIGN (0x4)
                [!provide]                        PROVIDE (_edata = .)
                0x00000000200008e4                __data_end__ = .

.igot.plt       0x00000000200008e4        0x0 load address 0x000000000801319c
 .igot.plt      0x00000000200008e4        0x0 ./build/obj/crt0_v7m.o

.bss            0x00000000200008e8     0x2598 load address 0x000000000801319c
                0x00000000200008e8                __bss_base__ = .
 *(.bss)
 *(.bss.*)
 .bss.SDCD1     0x00000000200008e8      0x24c /var/folders/yg/3nxcpv294hvfwgl_w3cbnbrh0000gn/T//ch.elf.rjwPRd.ltrans0.ltrans.o
                0x00000000200008e8                SDCD1
 .bss.SDU1      0x0000000020000b34      0x490 /var/folders/yg/3nxcpv294hvfwgl_w3cbnbrh0000gn/T//ch.elf.rjwPRd.ltrans0.ltrans.o
                0x0000000020000b34                SDU1
 .bss.USBD1     0x0000000020000fc4       0x88 /var/folders/yg/3nxcpv294hvfwgl_w3cbnbrh0000gn/T//ch.elf.rjwPRd.ltrans0.ltrans.o
                0x0000000020000fc4                USBD1
 *fill*         0x000000002000104c        0x4 
 .bss.ch0       0x0000000020001050       0x88 /var/folders/yg/3nxcpv294hvfwgl_w3cbnbrh0000gn/T//ch.elf.rjwPRd.ltrans0.ltrans.o
                0x0000000020001050                ch0
 .bss.ch_factory
                0x00000000200010d8       0x48 /var/folders/yg/3nxcpv294hvfwgl_w3cbnbrh0000gn/T//ch.elf.rjwPRd.ltrans0.ltrans.o
                0x00000000200010d8                ch_factory
 .bss.ch_memcore
                0x0000000020001120        0x8 /var/folders/yg/3nxcpv294hvfwgl_w3cbnbrh0000gn/T//ch.elf.rjwPRd.ltrans0.ltrans.o
                0x0000000020001120                ch_memcore
 .bss.ch_system
                0x0000000020001128        0xc /var/folders/yg/3nxcpv294hvfwgl_w3cbnbrh0000gn/T//ch.elf.rjwPRd.ltrans0.ltrans.o
                0x0000000020001128                ch_system
 .bss.chtest    0x0000000020001134       0x28 /var/folders/yg/3nxcpv294hvfwgl_w3cbnbrh0000gn/T//ch.elf.rjwPRd.ltrans0.ltrans.o
                0x0000000020001134                chtest
 .bss.default_heap.lto_priv.0
                0x000000002000115c       0x1c /var/folders/yg/3nxcpv294hvfwgl_w3cbnbrh0000gn/T//ch.elf.rjwPRd.ltrans0.ltrans.o
                0x000000002000115c                default_heap.lto_priv.0
 .bss.dma.lto_priv.0
                0x0000000020001178       0x68 /var/folders/yg/3nxcpv294hvfwgl_w3cbnbrh0000gn/T//ch.elf.rjwPRd.ltrans0.ltrans.o
                0x0000000020001178                dma.lto_priv.0
 .bss.ep0_state.lto_priv.0
                0x00000000200011e0       0x10 /var/folders/yg/3nxcpv294hvfwgl_w3cbnbrh0000gn/T//ch.elf.rjwPRd.ltrans0.ltrans.o
                0x00000000200011e0                ep0_state.lto_priv.0
 .bss.ep0setup_buffer.lto_priv.0
                0x00000000200011f0        0x8 /var/folders/yg/3nxcpv294hvfwgl_w3cbnbrh0000gn/T//ch.elf.rjwPRd.ltrans0.ltrans.o
                0x00000000200011f0                ep0setup_buffer.lto_priv.0
 .bss.ep1instate
                0x00000000200011f8       0x10 /var/folders/yg/3nxcpv294hvfwgl_w3cbnbrh0000gn/T//ch.elf.rjwPRd.ltrans0.ltrans.o
 .bss.ep1outstate
                0x0000000020001208       0x10 /var/folders/yg/3nxcpv294hvfwgl_w3cbnbrh0000gn/T//ch.elf.rjwPRd.ltrans0.ltrans.o
 .bss.ep2instate
                0x0000000020001218       0x10 /var/folders/yg/3nxcpv294hvfwgl_w3cbnbrh0000gn/T//ch.elf.rjwPRd.ltrans0.ltrans.o
 .bss.heap1     0x0000000020001228       0x1c /var/folders/yg/3nxcpv294hvfwgl_w3cbnbrh0000gn/T//ch.elf.rjwPRd.ltrans0.ltrans.o
 .bss.mp1.lto_priv.0
                0x0000000020001244       0x10 /var/folders/yg/3nxcpv294hvfwgl_w3cbnbrh0000gn/T//ch.elf.rjwPRd.ltrans0.ltrans.o
                0x0000000020001244                mp1.lto_priv.0
 .bss.sem1.lto_priv.0
                0x0000000020001254        0xc /var/folders/yg/3nxcpv294hvfwgl_w3cbnbrh0000gn/T//ch.elf.rjwPRd.ltrans0.ltrans.o
                0x0000000020001254                sem1.lto_priv.0
 .bss.sem1.lto_priv.1
                0x0000000020001260        0xc /var/folders/yg/3nxcpv294hvfwgl_w3cbnbrh0000gn/T//ch.elf.rjwPRd.ltrans0.ltrans.o
                0x0000000020001260                sem1.lto_priv.1
 .bss.shell_terminated
                0x000000002000126c        0x4 /var/folders/yg/3nxcpv294hvfwgl_w3cbnbrh0000gn/T//ch.elf.rjwPRd.ltrans0.ltrans.o
                0x000000002000126c                shell_terminated
 .bss.test_buffer
                0x0000000020001270      0x730 /var/folders/yg/3nxcpv294hvfwgl_w3cbnbrh0000gn/T//ch.elf.rjwPRd.ltrans0.ltrans.o
                0x0000000020001270                test_buffer
 .bss.threads   0x00000000200019a0       0x14 /var/folders/yg/3nxcpv294hvfwgl_w3cbnbrh0000gn/T//ch.elf.rjwPRd.ltrans0.ltrans.o
                0x00000000200019a0                threads
 .bss.tr1       0x00000000200019b4        0x4 /var/folders/yg/3nxcpv294hvfwgl_w3cbnbrh0000gn/T//ch.elf.rjwPRd.ltrans0.ltrans.o
 .bss.u         0x00000000200019b8      0x200 /var/folders/yg/3nxcpv294hvfwgl_w3cbnbrh0000gn/T//ch.elf.rjwPRd.ltrans0.ltrans.o
 .bss.FatFs     0x0000000020001bb8        0x4 /var/folders/yg/3nxcpv294hvfwgl_w3cbnbrh0000gn/T//ch.elf.rjwPRd.ltrans1.ltrans.o
 .bss.Fsid      0x0000000020001bbc        0x2 /var/folders/yg/3nxcpv294hvfwgl_w3cbnbrh0000gn/T//ch.elf.rjwPRd.ltrans1.ltrans.o
 *fill*         0x0000000020001bbe        0x2 
 .bss.SDC_FS    0x0000000020001bc0      0x23c /var/folders/yg/3nxcpv294hvfwgl_w3cbnbrh0000gn/T//ch.elf.rjwPRd.ltrans1.ltrans.o
 .bss.buffer    0x0000000020001dfc       0x10 /var/folders/yg/3nxcpv294hvfwgl_w3cbnbrh0000gn/T//ch.elf.rjwPRd.ltrans1.ltrans.o
 .bss.cache1    0x0000000020001e0c       0x44 /var/folders/yg/3nxcpv294hvfwgl_w3cbnbrh0000gn/T//ch.elf.rjwPRd.ltrans1.ltrans.o
 .bss.ch_c0_idle_thread_wa
                0x0000000020001e50      0x100 /var/folders/yg/3nxcpv294hvfwgl_w3cbnbrh0000gn/T//ch.elf.rjwPRd.ltrans1.ltrans.o
 .bss.cnt       0x0000000020001f50        0x4 /var/folders/yg/3nxcpv294hvfwgl_w3cbnbrh0000gn/T//ch.elf.rjwPRd.ltrans1.ltrans.o
 .bss.exit_flag
                0x0000000020001f54        0x1 /var/folders/yg/3nxcpv294hvfwgl_w3cbnbrh0000gn/T//ch.elf.rjwPRd.ltrans1.ltrans.o
 *fill*         0x0000000020001f55        0x3 
 .bss.fbuff     0x0000000020001f58      0x400 /var/folders/yg/3nxcpv294hvfwgl_w3cbnbrh0000gn/T//ch.elf.rjwPRd.ltrans1.ltrans.o
 .bss.fno.0     0x0000000020002358      0x120 /var/folders/yg/3nxcpv294hvfwgl_w3cbnbrh0000gn/T//ch.elf.rjwPRd.ltrans1.ltrans.o
 .bss.fs_ready  0x0000000020002478        0x1 /var/folders/yg/3nxcpv294hvfwgl_w3cbnbrh0000gn/T//ch.elf.rjwPRd.ltrans1.ltrans.o
 *fill*         0x0000000020002479        0x3 
 .bss.hash_headers
                0x000000002000247c       0x40 /var/folders/yg/3nxcpv294hvfwgl_w3cbnbrh0000gn/T//ch.elf.rjwPRd.ltrans1.ltrans.o
 .bss.inserted_event
                0x00000000200024bc        0x4 /var/folders/yg/3nxcpv294hvfwgl_w3cbnbrh0000gn/T//ch.elf.rjwPRd.ltrans1.ltrans.o
 .bss.jobs      0x00000000200024c0       0x20 /var/folders/yg/3nxcpv294hvfwgl_w3cbnbrh0000gn/T//ch.elf.rjwPRd.ltrans1.ltrans.o
 .bss.jq        0x00000000200024e0       0x44 /var/folders/yg/3nxcpv294hvfwgl_w3cbnbrh0000gn/T//ch.elf.rjwPRd.ltrans1.ltrans.o
 .bss.mb_buffer
                0x0000000020002524       0x10 /var/folders/yg/3nxcpv294hvfwgl_w3cbnbrh0000gn/T//ch.elf.rjwPRd.ltrans1.ltrans.o
 .bss.msg_queue
                0x0000000020002534       0x10 /var/folders/yg/3nxcpv294hvfwgl_w3cbnbrh0000gn/T//ch.elf.rjwPRd.ltrans1.ltrans.o
 .bss.mtx1      0x0000000020002544       0x10 /var/folders/yg/3nxcpv294hvfwgl_w3cbnbrh0000gn/T//ch.elf.rjwPRd.ltrans1.ltrans.o
 .bss.objects.lto_priv.0
                0x0000000020002554       0xf0 /var/folders/yg/3nxcpv294hvfwgl_w3cbnbrh0000gn/T//ch.elf.rjwPRd.ltrans1.ltrans.o
 .bss.objects.lto_priv.1
                0x0000000020002644       0x10 /var/folders/yg/3nxcpv294hvfwgl_w3cbnbrh0000gn/T//ch.elf.rjwPRd.ltrans1.ltrans.o
 .bss.removed_event
                0x0000000020002654        0x4 /var/folders/yg/3nxcpv294hvfwgl_w3cbnbrh0000gn/T//ch.elf.rjwPRd.ltrans1.ltrans.o
 .bss.shelltp   0x0000000020002658        0x4 /var/folders/yg/3nxcpv294hvfwgl_w3cbnbrh0000gn/T//ch.elf.rjwPRd.ltrans1.ltrans.o
 .bss.test_heap
                0x000000002000265c       0x1c /var/folders/yg/3nxcpv294hvfwgl_w3cbnbrh0000gn/T//ch.elf.rjwPRd.ltrans1.ltrans.o
 .bss.test_heap_buffer
                0x0000000020002678       0x80 /var/folders/yg/3nxcpv294hvfwgl_w3cbnbrh0000gn/T//ch.elf.rjwPRd.ltrans1.ltrans.o
 .bss.tmr       0x00000000200026f8       0x18 /var/folders/yg/3nxcpv294hvfwgl_w3cbnbrh0000gn/T//ch.elf.rjwPRd.ltrans1.ltrans.o
 .bss.vt1.1     0x0000000020002710       0x18 /var/folders/yg/3nxcpv294hvfwgl_w3cbnbrh0000gn/T//ch.elf.rjwPRd.ltrans1.ltrans.o
 .bss.vt2.0     0x0000000020002728       0x18 /var/folders/yg/3nxcpv294hvfwgl_w3cbnbrh0000gn/T//ch.elf.rjwPRd.ltrans1.ltrans.o
 .bss.wa1Thread1
                0x0000000020002740      0x1f0 /var/folders/yg/3nxcpv294hvfwgl_w3cbnbrh0000gn/T//ch.elf.rjwPRd.ltrans1.ltrans.o
 .bss.wa2Thread1
                0x0000000020002930      0x1f0 /var/folders/yg/3nxcpv294hvfwgl_w3cbnbrh0000gn/T//ch.elf.rjwPRd.ltrans1.ltrans.o
 .bss.waThread1.lto_priv.0
                0x0000000020002b20      0x1f0 /var/folders/yg/3nxcpv294hvfwgl_w3cbnbrh0000gn/T//ch.elf.rjwPRd.ltrans1.ltrans.o
 .bss.waThread1.lto_priv.1
                0x0000000020002d10      0x170 /var/folders/yg/3nxcpv294hvfwgl_w3cbnbrh0000gn/T//ch.elf.rjwPRd.ltrans1.ltrans.o
 *(COMMON)
                0x0000000020002e80                . = ALIGN (0x4)
                0x0000000020002e80                __bss_end__ = .
                [!provide]                        PROVIDE (end = .)
                0x0000000020000000                __ram0_base__ = ORIGIN (ram0)
                0x0000000000018000                __ram0_size__ = LENGTH (ram0)
                0x0000000020018000                __ram0_end__ = (__ram0_base__ + __ram0_size__)
                0x0000000000000000                __ram1_base__ = ORIGIN (ram1)
                0x0000000000000000                __ram1_size__ = LENGTH (ram1)
                0x0000000000000000                __ram1_end__ = (__ram1_base__ + __ram1_size__)
                0x0000000000000000                __ram2_base__ = ORIGIN (ram2)
                0x0000000000000000                __ram2_size__ = LENGTH (ram2)
                0x0000000000000000                __ram2_end__ = (__ram2_base__ + __ram2_size__)
                0x0000000000000000                __ram3_base__ = ORIGIN (ram3)
                0x0000000000000000                __ram3_size__ = LENGTH (ram3)
                0x0000000000000000                __ram3_end__ = (__ram3_base__ + __ram3_size__)
                0x0000000000000000                __ram4_base__ = ORIGIN (ram4)
                0x0000000000000000                __ram4_size__ = LENGTH (ram4)
                0x0000000000000000                __ram4_end__ = (__ram4_base__ + __ram4_size__)
                0x0000000000000000                __ram5_base__ = ORIGIN (ram5)
                0x0000000000000000                __ram5_size__ = LENGTH (ram5)
                0x0000000000000000                __ram5_end__ = (__ram5_base__ + __ram5_size__)
                0x0000000000000000                __ram6_base__ = ORIGIN (ram6)
                0x0000000000000000                __ram6_size__ = LENGTH (ram6)
                0x0000000000000000                __ram6_end__ = (__ram6_base__ + __ram6_size__)
                0x0000000000000000                __ram7_base__ = ORIGIN (ram7)
                0x0000000000000000                __ram7_size__ = LENGTH (ram7)
                0x0000000000000000                __ram7_end__ = (__ram7_base__ + __ram7_size__)
                0x0000000008000000                __flash0_base__ = ORIGIN (flash0)
                0x0000000000100000                __flash0_size__ = LENGTH (flash0)
                0x0000000008100000                __flash0_end__ = (__flash0_base__ + __flash0_size__)
                0x0000000000000000                __flash1_base__ = ORIGIN (flash1)
                0x0000000000000000                __flash1_size__ = LENGTH (flash1)
                0x0000000000000000                __flash1_end__ = (__flash1_base__ + __flash1_size__)
                0x0000000000000000                __flash2_base__ = ORIGIN (flash2)
                0x0000000000000000                __flash2_size__ = LENGTH (flash2)
                0x0000000000000000                __flash2_end__ = (__flash2_base__ + __flash2_size__)
                0x0000000000000000                __flash3_base__ = ORIGIN (flash3)
                0x0000000000000000                __flash3_size__ = LENGTH (flash3)
                0x0000000000000000                __flash3_end__ = (__flash3_base__ + __flash3_size__)
                0x0000000000000000                __flash4_base__ = ORIGIN (flash4)
                0x0000000000000000                __flash4_size__ = LENGTH (flash4)
                0x0000000000000000                __flash4_end__ = (__flash4_base__ + __flash4_size__)
                0x0000000000000000                __flash5_base__ = ORIGIN (flash5)
                0x0000000000000000                __flash5_size__ = LENGTH (flash5)
                0x0000000000000000                __flash5_end__ = (__flash5_base__ + __flash5_size__)
                0x0000000000000000                __flash6_base__ = ORIGIN (flash6)
                0x0000000000000000                __flash6_size__ = LENGTH (flash6)
                0x0000000000000000                __flash6_end__ = (__flash6_base__ + __flash6_size__)
                0x0000000000000000                __flash7_base__ = ORIGIN (flash7)
                0x0000000000000000                __flash7_size__ = LENGTH (flash7)
                0x0000000000000000                __flash7_end__ = (__flash7_base__ + __flash7_size__)

.ram0_init      0x0000000020002e80        0x0 load address 0x000000000801319c
                0x000000000801319c                __ram0_init_text__ = LOADADDR (.ram0_init)
                0x0000000020002e80                __ram0_init__ = .
 *(.ram0_init)
 *(.ram0_init.*)
                0x0000000020002e80                . = ALIGN (0x4)

.ram0           0x0000000020002e80        0x0 load address 0x000000000801319c
                0x0000000020002e80                __ram0_clear__ = .
 *(.ram0_clear)
 *(.ram0_clear.*)
                0x0000000020002e80                . = ALIGN (0x4)
                0x0000000020002e80                __ram0_noinit__ = .
 *(.ram0)
 *(.ram0.*)
                0x0000000020002e80                . = ALIGN (0x4)
                0x0000000020002e80                __ram0_free__ = .

.ram1_init      0x0000000000000000        0x0 load address 0x000000000801319c
                0x000000000801319c                __ram1_init_text__ = LOADADDR (.ram1_init)
                0x0000000000000000                __ram1_init__ = .
 *(.ram1_init)
 *(.ram1_init.*)
                0x0000000000000000                . = ALIGN (0x4)

.ram1           0x0000000000000000        0x0 load address 0x000000000801319c
                0x0000000000000000                __ram1_clear__ = .
 *(.ram1_clear)
 *(.ram1_clear.*)
                0x0000000000000000                . = ALIGN (0x4)
                0x0000000000000000                __ram1_noinit__ = .
 *(.ram1)
 *(.ram1.*)
                0x0000000000000000                . = ALIGN (0x4)
                0x0000000000000000                __ram1_free__ = .

.ram2_init      0x0000000000000000        0x0 load address 0x000000000801319c
                0x000000000801319c                __ram2_init_text__ = LOADADDR (.ram2_init)
                0x0000000000000000                __ram2_init__ = .
 *(.ram2_init)
 *(.ram2_init.*)
                0x0000000000000000                . = ALIGN (0x4)

.ram2           0x0000000000000000        0x0 load address 0x000000000801319c
                0x0000000000000000                __ram2_clear__ = .
 *(.ram2_clear)
 *(.ram2_clear.*)
                0x0000000000000000                . = ALIGN (0x4)
                0x0000000000000000                __ram2_noinit__ = .
 *(.ram2)
 *(.ram2.*)
                0x0000000000000000                . = ALIGN (0x4)
                0x0000000000000000                __ram2_free__ = .

.ram3_init      0x0000000000000000        0x0 load address 0x000000000801319c
                0x000000000801319c                __ram3_init_text__ = LOADADDR (.ram3_init)
                0x0000000000000000                __ram3_init__ = .
 *(.ram3_init)
 *(.ram3_init.*)
                0x0000000000000000                . = ALIGN (0x4)

.ram3           0x0000000000000000        0x0 load address 0x000000000801319c
                0x0000000000000000                __ram3_clear__ = .
 *(.ram3_clear)
 *(.ram3_clear.*)
                0x0000000000000000                . = ALIGN (0x4)
                0x0000000000000000                __ram3_noinit__ = .
 *(.ram3)
 *(.ram3.*)
                0x0000000000000000                . = ALIGN (0x4)
                0x0000000000000000                __ram3_free__ = .

.ram4_init      0x0000000000000000        0x0 load address 0x000000000801319c
                0x000000000801319c                __ram4_init_text__ = LOADADDR (.ram4_init)
                0x0000000000000000                __ram4_init__ = .
 *(.ram4_init)
 *(.ram4_init.*)
                0x0000000000000000                . = ALIGN (0x4)

.ram4           0x0000000000000000        0x0 load address 0x000000000801319c
                0x0000000000000000                __ram4_clear__ = .
 *(.ram4_clear)
 *(.ram4_clear.*)
                0x0000000000000000                . = ALIGN (0x4)
                0x0000000000000000                __ram4_noinit__ = .
 *(.ram4)
 *(.ram4.*)
                0x0000000000000000                . = ALIGN (0x4)
                0x0000000000000000                __ram4_free__ = .

.ram5_init      0x0000000000000000        0x0 load address 0x000000000801319c
                0x000000000801319c                __ram5_init_text__ = LOADADDR (.ram5_init)
                0x0000000000000000                __ram5_init__ = .
 *(.ram5_init)
 *(.ram5_init.*)
                0x0000000000000000                . = ALIGN (0x4)

.ram5           0x0000000000000000        0x0 load address 0x000000000801319c
                0x0000000000000000                __ram5_clear__ = .
 *(.ram5_clear)
 *(.ram5_clear.*)
                0x0000000000000000                . = ALIGN (0x4)
                0x0000000000000000                __ram5_noinit__ = .
 *(.ram5)
 *(.ram5.*)
                0x0000000000000000                . = ALIGN (0x4)
                0x0000000000000000                __ram5_free__ = .

.ram6_init      0x0000000000000000        0x0 load address 0x000000000801319c
                0x000000000801319c                __ram6_init_text__ = LOADADDR (.ram6_init)
                0x0000000000000000                __ram6_init__ = .
 *(.ram6_init)
 *(.ram6_init.*)
                0x0000000000000000                . = ALIGN (0x4)

.ram6           0x0000000000000000        0x0 load address 0x000000000801319c
                0x0000000000000000                __ram6_clear__ = .
 *(.ram6_clear)
 *(.ram6_clear.*)
                0x0000000000000000                . = ALIGN (0x4)
                0x0000000000000000                __ram6_noinit__ = .
 *(.ram6)
 *(.ram6.*)
                0x0000000000000000                . = ALIGN (0x4)
                0x0000000000000000                __ram6_free__ = .

.ram7_init      0x0000000000000000        0x0 load address 0x000000000801319c
                0x000000000801319c                __ram7_init_text__ = LOADADDR (.ram7_init)
                0x0000000000000000                __ram7_init__ = .
 *(.ram7_init)
 *(.ram7_init.*)
                0x0000000000000000                . = ALIGN (0x4)

.ram7           0x0000000000000000        0x0 load address 0x000000000801319c
                0x0000000000000000                __ram7_clear__ = .
 *(.ram7_clear)
 *(.ram7_clear.*)
                0x0000000000000000                . = ALIGN (0x4)
                0x0000000000000000                __ram7_noinit__ = .
 *(.ram7)
 *(.ram7.*)
                0x0000000000000000                . = ALIGN (0x4)
                0x0000000000000000                __ram7_free__ = .

.flash0         0x000000000801319c        0x0
                0x000000000801319c                __flash0_init__ = .
 *(.flash0_init)
 *(.flash0_init.*)
                0x000000000801319c                __flash0_free__ = .

.flash1         0x0000000000000000        0x0
                0x0000000000000000                __flash1_init__ = .
 *(.flash1_init)
 *(.flash1_init.*)
                0x0000000000000000                __flash1_free__ = .

.flash2         0x0000000000000000        0x0
                0x0000000000000000                __flash2_init__ = .
 *(.flash2_init)
 *(.flash2_init.*)
                0x0000000000000000                __flash2_free__ = .

.flash3         0x0000000000000000        0x0
                0x0000000000000000                __flash3_init__ = .
 *(.flash3_init)
 *(.flash3_init.*)
                0x0000000000000000                __flash3_free__ = .

.flash4         0x0000000000000000        0x0
                0x0000000000000000                __flash4_init__ = .
 *(.flash4_init)
 *(.flash4_init.*)
                0x0000000000000000                __flash4_free__ = .

.flash5         0x0000000000000000        0x0
                0x0000000000000000                __flash5_init__ = .
 *(.flash5_init)
 *(.flash5_init.*)
                0x0000000000000000                __flash5_free__ = .

.flash6         0x0000000000000000        0x0
                0x0000000000000000                __flash6_init__ = .
 *(.flash6_init)
 *(.flash6_init.*)
                0x0000000000000000                __flash6_free__ = .

.flash7         0x0000000000000000        0x0
                0x0000000000000000                __flash7_init__ = .
 *(.flash7_init)
 *(.flash7_init.*)
                0x0000000000000000                __flash7_free__ = .

.heap           0x0000000020002e80    0x15180
                0x0000000020002e80                . = ALIGN (0x8)
                0x0000000020002e80                __heap_base__ = .
                0x0000000020018000                . = (ORIGIN (HEAP_RAM) + LENGTH (HEAP_RAM))
 *fill*         0x0000000020002e80    0x15180 
                0x0000000020018000                __heap_end__ = .
                0x0000000000000400                __process_stack_size__ = 0x400
                0x0000000000000400                __main_stack_size__ = 0x400
START GROUP
LOAD /usr/local/Caskroom/gcc-arm-embedded/10-2020-q4-major/gcc-arm-none-eabi-10-2020-q4-major/bin/../lib/gcc/arm-none-eabi/10.2.1/thumb/v7-m/nofp/libgcc.a
LOAD /usr/local/Caskroom/gcc-arm-embedded/10-2020-q4-major/gcc-arm-none-eabi-10-2020-q4-major/bin/../lib/gcc/arm-none-eabi/10.2.1/../../../../arm-none-eabi/lib/thumb/v7-m/nofp/libg.a
LOAD /usr/local/Caskroom/gcc-arm-embedded/10-2020-q4-major/gcc-arm-none-eabi-10-2020-q4-major/bin/../lib/gcc/arm-none-eabi/10.2.1/../../../../arm-none-eabi/lib/thumb/v7-m/nofp/libc.a
END GROUP
OUTPUT(build/ch.elf elf32-littlearm)
LOAD linker stubs

.ARM.attributes
                0x0000000000000000       0x2f
 .ARM.attributes
                0x0000000000000000       0x21 ./build/obj/crt0_v7m.o
 .ARM.attributes
                0x0000000000000021       0x21 ./build/obj/vectors.o
 .ARM.attributes
                0x0000000000000042       0x21 ./build/obj/chcoreasm.o
 .ARM.attributes
                0x0000000000000063       0x2b /var/folders/yg/3nxcpv294hvfwgl_w3cbnbrh0000gn/T//ch.elf.rjwPRd.ltrans0.ltrans.o
 .ARM.attributes
                0x000000000000008e       0x2b /var/folders/yg/3nxcpv294hvfwgl_w3cbnbrh0000gn/T//ch.elf.rjwPRd.ltrans1.ltrans.o
 .ARM.attributes
                0x00000000000000b9       0x2d /usr/local/Caskroom/gcc-arm-embedded/10-2020-q4-major/gcc-arm-none-eabi-10-2020-q4-major/bin/../lib/gcc/arm-none-eabi/10.2.1/../../../../arm-none-eabi/lib/thumb/v7-m/nofp/libg.a(lib_a-memcmp.o)
 .ARM.attributes
                0x00000000000000e6       0x1b /usr/local/Caskroom/gcc-arm-embedded/10-2020-q4-major/gcc-arm-none-eabi-10-2020-q4-major/bin/../lib/gcc/arm-none-eabi/10.2.1/../../../../arm-none-eabi/lib/thumb/v7-m/nofp/libg.a(lib_a-memcpy.o)
 .ARM.attributes
                0x0000000000000101       0x2d /usr/local/Caskroom/gcc-arm-embedded/10-2020-q4-major/gcc-arm-none-eabi-10-2020-q4-major/bin/../lib/gcc/arm-none-eabi/10.2.1/../../../../arm-none-eabi/lib/thumb/v7-m/nofp/libg.a(lib_a-memset.o)
 .ARM.attributes
                0x000000000000012e       0x2d /usr/local/Caskroom/gcc-arm-embedded/10-2020-q4-major/gcc-arm-none-eabi-10-2020-q4-major/bin/../lib/gcc/arm-none-eabi/10.2.1/../../../../arm-none-eabi/lib/thumb/v7-m/nofp/libg.a(lib_a-strchr.o)
 .ARM.attributes
                0x000000000000015b       0x1b /usr/local/Caskroom/gcc-arm-embedded/10-2020-q4-major/gcc-arm-none-eabi-10-2020-q4-major/bin/../lib/gcc/arm-none-eabi/10.2.1/../../../../arm-none-eabi/lib/thumb/v7-m/nofp/libg.a(lib_a-strcmp.o)
 .ARM.attributes
                0x0000000000000176       0x2d /usr/local/Caskroom/gcc-arm-embedded/10-2020-q4-major/gcc-arm-none-eabi-10-2020-q4-major/bin/../lib/gcc/arm-none-eabi/10.2.1/../../../../arm-none-eabi/lib/thumb/v7-m/nofp/libg.a(lib_a-strcpy.o)
 .ARM.attributes
                0x00000000000001a3       0x2d /usr/local/Caskroom/gcc-arm-embedded/10-2020-q4-major/gcc-arm-none-eabi-10-2020-q4-major/bin/../lib/gcc/arm-none-eabi/10.2.1/../../../../arm-none-eabi/lib/thumb/v7-m/nofp/libg.a(lib_a-strlen-stub.o)
 .ARM.attributes
                0x00000000000001d0       0x2d /usr/local/Caskroom/gcc-arm-embedded/10-2020-q4-major/gcc-arm-none-eabi-10-2020-q4-major/bin/../lib/gcc/arm-none-eabi/10.2.1/../../../../arm-none-eabi/lib/thumb/v7-m/nofp/libg.a(lib_a-strncmp.o)
 .ARM.attributes
                0x00000000000001fd       0x2d /usr/local/Caskroom/gcc-arm-embedded/10-2020-q4-major/gcc-arm-none-eabi-10-2020-q4-major/bin/../lib/gcc/arm-none-eabi/10.2.1/../../../../arm-none-eabi/lib/thumb/v7-m/nofp/libg.a(lib_a-strpbrk.o)
 .ARM.attributes
                0x000000000000022a       0x2d /usr/local/Caskroom/gcc-arm-embedded/10-2020-q4-major/gcc-arm-none-eabi-10-2020-q4-major/bin/../lib/gcc/arm-none-eabi/10.2.1/../../../../arm-none-eabi/lib/thumb/v7-m/nofp/libg.a(lib_a-strspn.o)

.comment        0x0000000000000000       0x4d
 .comment       0x0000000000000000       0x4d /var/folders/yg/3nxcpv294hvfwgl_w3cbnbrh0000gn/T//ch.elf.rjwPRd.ltrans0.ltrans.o
                                         0x4e (size before relaxing)
 .comment       0x000000000000004d       0x4e /var/folders/yg/3nxcpv294hvfwgl_w3cbnbrh0000gn/T//ch.elf.rjwPRd.ltrans1.ltrans.o

.debug_line     0x0000000000000000    0x392ce
 .debug_line    0x0000000000000000       0xc5 ./build/obj/crt0_v7m.o
 .debug_line    0x00000000000000c5       0x6f ./build/obj/vectors.o
 .debug_line    0x0000000000000134       0x83 ./build/obj/chcoreasm.o
 .debug_line    0x00000000000001b7    0x1974d /var/folders/yg/3nxcpv294hvfwgl_w3cbnbrh0000gn/T//ch.elf.rjwPRd.ltrans0.ltrans.o
 .debug_line    0x0000000000019904    0x12185 /var/folders/yg/3nxcpv294hvfwgl_w3cbnbrh0000gn/T//ch.elf.rjwPRd.ltrans1.ltrans.o
 .debug_line    0x000000000002ba89      0x163 /var/folders/yg/3nxcpv294hvfwgl_w3cbnbrh0000gn/T//ccsc4w2v.debug.temp.o
 .debug_line    0x000000000002bbec      0x1a4 /var/folders/yg/3nxcpv294hvfwgl_w3cbnbrh0000gn/T//ccEnBsBL.debug.temp.o
 .debug_line    0x000000000002bd90      0x1db /var/folders/yg/3nxcpv294hvfwgl_w3cbnbrh0000gn/T//ccnPPcf1.debug.temp.o
 .debug_line    0x000000000002bf6b      0x2f7 /var/folders/yg/3nxcpv294hvfwgl_w3cbnbrh0000gn/T//ccqqkKEK.debug.temp.o
 .debug_line    0x000000000002c262      0x20e /var/folders/yg/3nxcpv294hvfwgl_w3cbnbrh0000gn/T//ccaHgcBV.debug.temp.o
 .debug_line    0x000000000002c470      0x3f3 /var/folders/yg/3nxcpv294hvfwgl_w3cbnbrh0000gn/T//ccoEuz8b.debug.temp.o
 .debug_line    0x000000000002c863      0x3c2 /var/folders/yg/3nxcpv294hvfwgl_w3cbnbrh0000gn/T//cc47Gxtg.debug.temp.o
 .debug_line    0x000000000002cc25      0x2fd /var/folders/yg/3nxcpv294hvfwgl_w3cbnbrh0000gn/T//cckFYBf2.debug.temp.o
 .debug_line    0x000000000002cf22      0x193 /var/folders/yg/3nxcpv294hvfwgl_w3cbnbrh0000gn/T//cc0tMju5.debug.temp.o
 .debug_line    0x000000000002d0b5       0x88 /var/folders/yg/3nxcpv294hvfwgl_w3cbnbrh0000gn/T//ccHzzi5N.debug.temp.o
 .debug_line    0x000000000002d13d      0x231 /var/folders/yg/3nxcpv294hvfwgl_w3cbnbrh0000gn/T//ccFQM362.debug.temp.o
 .debug_line    0x000000000002d36e      0x2de /var/folders/yg/3nxcpv294hvfwgl_w3cbnbrh0000gn/T//ccc8RR6m.debug.temp.o
 .debug_line    0x000000000002d64c      0x1a7 /var/folders/yg/3nxcpv294hvfwgl_w3cbnbrh0000gn/T//ccch4slX.debug.temp.o
 .debug_line    0x000000000002d7f3      0x3e3 /var/folders/yg/3nxcpv294hvfwgl_w3cbnbrh0000gn/T//ccKW2t2M.debug.temp.o
 .debug_line    0x000000000002dbd6      0x27f /var/folders/yg/3nxcpv294hvfwgl_w3cbnbrh0000gn/T//ccqB9LUH.debug.temp.o
 .debug_line    0x000000000002de55      0x264 /var/folders/yg/3nxcpv294hvfwgl_w3cbnbrh0000gn/T//ccYHJ1B4.debug.temp.o
 .debug_line    0x000000000002e0b9      0x3cf /var/folders/yg/3nxcpv294hvfwgl_w3cbnbrh0000gn/T//cc3QhnFJ.debug.temp.o
 .debug_line    0x000000000002e488      0x32f /var/folders/yg/3nxcpv294hvfwgl_w3cbnbrh0000gn/T//ccLsnWLb.debug.temp.o
 .debug_line    0x000000000002e7b7      0x22c /var/folders/yg/3nxcpv294hvfwgl_w3cbnbrh0000gn/T//ccOLTT8T.debug.temp.o
 .debug_line    0x000000000002e9e3      0x29f /var/folders/yg/3nxcpv294hvfwgl_w3cbnbrh0000gn/T//ccyES0dk.debug.temp.o
 .debug_line    0x000000000002ec82      0x273 /var/folders/yg/3nxcpv294hvfwgl_w3cbnbrh0000gn/T//cc2eTdRk.debug.temp.o
 .debug_line    0x000000000002eef5      0x292 /var/folders/yg/3nxcpv294hvfwgl_w3cbnbrh0000gn/T//ccrq9Vrw.debug.temp.o
 .debug_line    0x000000000002f187      0x33d /var/folders/yg/3nxcpv294hvfwgl_w3cbnbrh0000gn/T//cca9wbrn.debug.temp.o
 .debug_line    0x000000000002f4c4      0x270 /var/folders/yg/3nxcpv294hvfwgl_w3cbnbrh0000gn/T//ccJFb7AH.debug.temp.o
 .debug_line    0x000000000002f734      0x316 /var/folders/yg/3nxcpv294hvfwgl_w3cbnbrh0000gn/T//ccu18jlC.debug.temp.o
 .debug_line    0x000000000002fa4a      0x277 /var/folders/yg/3nxcpv294hvfwgl_w3cbnbrh0000gn/T//ccGWGlU7.debug.temp.o
 .debug_line    0x000000000002fcc1      0x283 /var/folders/yg/3nxcpv294hvfwgl_w3cbnbrh0000gn/T//cczwCn8z.debug.temp.o
 .debug_line    0x000000000002ff44      0x290 /var/folders/yg/3nxcpv294hvfwgl_w3cbnbrh0000gn/T//cchuCNYR.debug.temp.o
 .debug_line    0x00000000000301d4      0x288 /var/folders/yg/3nxcpv294hvfwgl_w3cbnbrh0000gn/T//ccsBzqQ4.debug.temp.o
 .debug_line    0x000000000003045c      0x282 /var/folders/yg/3nxcpv294hvfwgl_w3cbnbrh0000gn/T//ccCA6jco.debug.temp.o
 .debug_line    0x00000000000306de      0x34e /var/folders/yg/3nxcpv294hvfwgl_w3cbnbrh0000gn/T//ccagiXP9.debug.temp.o
 .debug_line    0x0000000000030a2c      0x2cf /var/folders/yg/3nxcpv294hvfwgl_w3cbnbrh0000gn/T//ccz9cfOn.debug.temp.o
 .debug_line    0x0000000000030cfb      0x28d /var/folders/yg/3nxcpv294hvfwgl_w3cbnbrh0000gn/T//ccVHwVMv.debug.temp.o
 .debug_line    0x0000000000030f88      0x2eb /var/folders/yg/3nxcpv294hvfwgl_w3cbnbrh0000gn/T//cckBlZvD.debug.temp.o
 .debug_line    0x0000000000031273      0x2cf /var/folders/yg/3nxcpv294hvfwgl_w3cbnbrh0000gn/T//ccJ1rvLE.debug.temp.o
 .debug_line    0x0000000000031542      0x31e /var/folders/yg/3nxcpv294hvfwgl_w3cbnbrh0000gn/T//ccsZX2SD.debug.temp.o
 .debug_line    0x0000000000031860      0x2b6 /var/folders/yg/3nxcpv294hvfwgl_w3cbnbrh0000gn/T//cc6FCR9q.debug.temp.o
 .debug_line    0x0000000000031b16      0x33f /var/folders/yg/3nxcpv294hvfwgl_w3cbnbrh0000gn/T//ccmnndzo.debug.temp.o
 .debug_line    0x0000000000031e55      0x324 /var/folders/yg/3nxcpv294hvfwgl_w3cbnbrh0000gn/T//ccREkILu.debug.temp.o
 .debug_line    0x0000000000032179      0x28e /var/folders/yg/3nxcpv294hvfwgl_w3cbnbrh0000gn/T//ccfUj7Ic.debug.temp.o
 .debug_line    0x0000000000032407      0x39c /var/folders/yg/3nxcpv294hvfwgl_w3cbnbrh0000gn/T//ccGvMwdD.debug.temp.o
 .debug_line    0x00000000000327a3      0x254 /var/folders/yg/3nxcpv294hvfwgl_w3cbnbrh0000gn/T//ccyx9CQf.debug.temp.o
 .debug_line    0x00000000000329f7      0x369 /var/folders/yg/3nxcpv294hvfwgl_w3cbnbrh0000gn/T//cc2fkOpI.debug.temp.o
 .debug_line    0x0000000000032d60      0x3d4 /var/folders/yg/3nxcpv294hvfwgl_w3cbnbrh0000gn/T//cch7ycES.debug.temp.o
 .debug_line    0x0000000000033134      0x3c7 /var/folders/yg/3nxcpv294hvfwgl_w3cbnbrh0000gn/T//ccWYoy8A.debug.temp.o
 .debug_line    0x00000000000334fb      0x31d /var/folders/yg/3nxcpv294hvfwgl_w3cbnbrh0000gn/T//ccrBykP2.debug.temp.o
 .debug_line    0x0000000000033818      0x15f /var/folders/yg/3nxcpv294hvfwgl_w3cbnbrh0000gn/T//ccd3BiZf.debug.temp.o
 .debug_line    0x0000000000033977      0x15a /var/folders/yg/3nxcpv294hvfwgl_w3cbnbrh0000gn/T//ccVHUzBX.debug.temp.o
 .debug_line    0x0000000000033ad1      0x296 /var/folders/yg/3nxcpv294hvfwgl_w3cbnbrh0000gn/T//cc5GxNhn.debug.temp.o
 .debug_line    0x0000000000033d67      0x269 /var/folders/yg/3nxcpv294hvfwgl_w3cbnbrh0000gn/T//ccNCraa9.debug.temp.o
 .debug_line    0x0000000000033fd0      0x4ab /var/folders/yg/3nxcpv294hvfwgl_w3cbnbrh0000gn/T//cczLSz6x.debug.temp.o
 .debug_line    0x000000000003447b      0x277 /var/folders/yg/3nxcpv294hvfwgl_w3cbnbrh0000gn/T//ccIzoWp0.debug.temp.o
 .debug_line    0x00000000000346f2      0x34f /var/folders/yg/3nxcpv294hvfwgl_w3cbnbrh0000gn/T//cckQ3Wnr.debug.temp.o
 .debug_line    0x0000000000034a41      0x2bb /var/folders/yg/3nxcpv294hvfwgl_w3cbnbrh0000gn/T//ccVfZGDE.debug.temp.o
 .debug_line    0x0000000000034cfc      0x330 /var/folders/yg/3nxcpv294hvfwgl_w3cbnbrh0000gn/T//ccWpQNbm.debug.temp.o
 .debug_line    0x000000000003502c      0x3cd /var/folders/yg/3nxcpv294hvfwgl_w3cbnbrh0000gn/T//cc7reZA1.debug.temp.o
 .debug_line    0x00000000000353f9      0x3cd /var/folders/yg/3nxcpv294hvfwgl_w3cbnbrh0000gn/T//ccPhqrTt.debug.temp.o
 .debug_line    0x00000000000357c6      0x3e1 /var/folders/yg/3nxcpv294hvfwgl_w3cbnbrh0000gn/T//ccmcEBBm.debug.temp.o
 .debug_line    0x0000000000035ba7      0x3a1 /var/folders/yg/3nxcpv294hvfwgl_w3cbnbrh0000gn/T//ccwiXVqR.debug.temp.o
 .debug_line    0x0000000000035f48      0x3a0 /var/folders/yg/3nxcpv294hvfwgl_w3cbnbrh0000gn/T//ccyg6n8a.debug.temp.o
 .debug_line    0x00000000000362e8      0x3c9 /var/folders/yg/3nxcpv294hvfwgl_w3cbnbrh0000gn/T//ccVnyM8M.debug.temp.o
 .debug_line    0x00000000000366b1      0x3a1 /var/folders/yg/3nxcpv294hvfwgl_w3cbnbrh0000gn/T//cca1IPIp.debug.temp.o
 .debug_line    0x0000000000036a52      0x3d8 /var/folders/yg/3nxcpv294hvfwgl_w3cbnbrh0000gn/T//ccX1xGxm.debug.temp.o
 .debug_line    0x0000000000036e2a      0x21d /var/folders/yg/3nxcpv294hvfwgl_w3cbnbrh0000gn/T//cc3UofA7.debug.temp.o
 .debug_line    0x0000000000037047      0x280 /var/folders/yg/3nxcpv294hvfwgl_w3cbnbrh0000gn/T//ccVq3MXJ.debug.temp.o
 .debug_line    0x00000000000372c7      0x36b /var/folders/yg/3nxcpv294hvfwgl_w3cbnbrh0000gn/T//ccfwoRTi.debug.temp.o
 .debug_line    0x0000000000037632      0x35c /var/folders/yg/3nxcpv294hvfwgl_w3cbnbrh0000gn/T//ccELGOWK.debug.temp.o
 .debug_line    0x000000000003798e      0x3a2 /var/folders/yg/3nxcpv294hvfwgl_w3cbnbrh0000gn/T//ccmQFuwB.debug.temp.o
 .debug_line    0x0000000000037d30      0x37a /var/folders/yg/3nxcpv294hvfwgl_w3cbnbrh0000gn/T//cc1cQscI.debug.temp.o
 .debug_line    0x00000000000380aa      0x338 /var/folders/yg/3nxcpv294hvfwgl_w3cbnbrh0000gn/T//cc4Di5Oo.debug.temp.o
 .debug_line    0x00000000000383e2      0x2dd /var/folders/yg/3nxcpv294hvfwgl_w3cbnbrh0000gn/T//ccoOqWUS.debug.temp.o
 .debug_line    0x00000000000386bf      0x36e /var/folders/yg/3nxcpv294hvfwgl_w3cbnbrh0000gn/T//cc6STcVk.debug.temp.o
 .debug_line    0x0000000000038a2d      0x3a8 /var/folders/yg/3nxcpv294hvfwgl_w3cbnbrh0000gn/T//cce7fzph.debug.temp.o
 .debug_line    0x0000000000038dd5      0x4f9 /var/folders/yg/3nxcpv294hvfwgl_w3cbnbrh0000gn/T//ccin0BHY.debug.temp.o

.debug_info     0x0000000000000000    0x6f78d
 .debug_info    0x0000000000000000       0x26 ./build/obj/crt0_v7m.o
 .debug_info    0x0000000000000026       0x26 ./build/obj/vectors.o
 .debug_info    0x000000000000004c       0x26 ./build/obj/chcoreasm.o
 .debug_info    0x0000000000000072    0x2284f /var/folders/yg/3nxcpv294hvfwgl_w3cbnbrh0000gn/T//ch.elf.rjwPRd.ltrans0.ltrans.o
 .debug_info    0x00000000000228c1    0x1b85f /var/folders/yg/3nxcpv294hvfwgl_w3cbnbrh0000gn/T//ch.elf.rjwPRd.ltrans1.ltrans.o
 .debug_info    0x000000000003e120      0x2c8 /var/folders/yg/3nxcpv294hvfwgl_w3cbnbrh0000gn/T//ccsc4w2v.debug.temp.o
                0x000000000003e120                crt1.c.fe78d451
 .debug_info    0x000000000003e3e8      0x162 /var/folders/yg/3nxcpv294hvfwgl_w3cbnbrh0000gn/T//ccEnBsBL.debug.temp.o
                0x000000000003e3e8                hal.c.9a1acb85
 .debug_info    0x000000000003e54a      0x32d /var/folders/yg/3nxcpv294hvfwgl_w3cbnbrh0000gn/T//ccnPPcf1.debug.temp.o
                0x000000000003e54a                hal_st.c.43e3a943
 .debug_info    0x000000000003e877      0x931 /var/folders/yg/3nxcpv294hvfwgl_w3cbnbrh0000gn/T//ccqqkKEK.debug.temp.o
                0x000000000003e877                hal_buffers.c.d246170d
 .debug_info    0x000000000003f1a8      0xbb8 /var/folders/yg/3nxcpv294hvfwgl_w3cbnbrh0000gn/T//ccaHgcBV.debug.temp.o
                0x000000000003f1a8                hal_mmcsd.c.d5b58925
 .debug_info    0x000000000003fd60     0x14c7 /var/folders/yg/3nxcpv294hvfwgl_w3cbnbrh0000gn/T//ccoEuz8b.debug.temp.o
                0x000000000003fd60                hal_sdc.c.99f7ab39
 .debug_info    0x0000000000041227     0x1715 /var/folders/yg/3nxcpv294hvfwgl_w3cbnbrh0000gn/T//cc47Gxtg.debug.temp.o
                0x0000000000041227                hal_serial_usb.c.7d6104d4
 .debug_info    0x000000000004293c      0xb9f /var/folders/yg/3nxcpv294hvfwgl_w3cbnbrh0000gn/T//cckFYBf2.debug.temp.o
                0x000000000004293c                hal_usb.c.f9cd66e7
 .debug_info    0x00000000000434db      0x4bc /var/folders/yg/3nxcpv294hvfwgl_w3cbnbrh0000gn/T//cc0tMju5.debug.temp.o
                0x00000000000434db                nvic.c.8a281680
 .debug_info    0x0000000000043997      0x236 /var/folders/yg/3nxcpv294hvfwgl_w3cbnbrh0000gn/T//ccHzzi5N.debug.temp.o
                0x0000000000043997                stm32_isr.c.ad5990bd
 .debug_info    0x0000000000043bcd      0x29b /var/folders/yg/3nxcpv294hvfwgl_w3cbnbrh0000gn/T//ccFQM362.debug.temp.o
                0x0000000000043bcd                hal_lld.c.98af90f5
 .debug_info    0x0000000000043e68      0x5c2 /var/folders/yg/3nxcpv294hvfwgl_w3cbnbrh0000gn/T//ccc8RR6m.debug.temp.o
                0x0000000000043e68                stm32_dma.c.878fff79
 .debug_info    0x000000000004442a      0x362 /var/folders/yg/3nxcpv294hvfwgl_w3cbnbrh0000gn/T//ccch4slX.debug.temp.o
                0x000000000004442a                hal_pal_lld.c.cffdc2a9
 .debug_info    0x000000000004478c     0x14ec /var/folders/yg/3nxcpv294hvfwgl_w3cbnbrh0000gn/T//ccKW2t2M.debug.temp.o
                0x000000000004478c                hal_sdc_lld.c.c709be8a
 .debug_info    0x0000000000045c78      0x393 /var/folders/yg/3nxcpv294hvfwgl_w3cbnbrh0000gn/T//ccqB9LUH.debug.temp.o
                0x0000000000045c78                hal_st_lld.c.711fc708
 .debug_info    0x000000000004600b      0xc90 /var/folders/yg/3nxcpv294hvfwgl_w3cbnbrh0000gn/T//ccYHJ1B4.debug.temp.o
                0x000000000004600b                hal_usb_lld.c.beb8bb6a
 .debug_info    0x0000000000046c9b      0xe83 /var/folders/yg/3nxcpv294hvfwgl_w3cbnbrh0000gn/T//cc3QhnFJ.debug.temp.o
                0x0000000000046c9b                board.c.7960b774
 .debug_info    0x0000000000047b1e      0xd5c /var/folders/yg/3nxcpv294hvfwgl_w3cbnbrh0000gn/T//ccLsnWLb.debug.temp.o
                0x0000000000047b1e                chsys.c.683fd48c
 .debug_info    0x000000000004887a      0x7a8 /var/folders/yg/3nxcpv294hvfwgl_w3cbnbrh0000gn/T//ccOLTT8T.debug.temp.o
                0x000000000004887a                chrfcu.c.931abc68
 .debug_info    0x0000000000049022      0xda0 /var/folders/yg/3nxcpv294hvfwgl_w3cbnbrh0000gn/T//ccyES0dk.debug.temp.o
                0x0000000000049022                chvt.c.8a228645
 .debug_info    0x0000000000049dc2      0xc94 /var/folders/yg/3nxcpv294hvfwgl_w3cbnbrh0000gn/T//cc2eTdRk.debug.temp.o
                0x0000000000049dc2                chschd.c.157ceecb
 .debug_info    0x000000000004aa56      0xb32 /var/folders/yg/3nxcpv294hvfwgl_w3cbnbrh0000gn/T//ccrq9Vrw.debug.temp.o
                0x000000000004aa56                chinstances.c.9f07e995
 .debug_info    0x000000000004b588     0x104e /var/folders/yg/3nxcpv294hvfwgl_w3cbnbrh0000gn/T//cca9wbrn.debug.temp.o
                0x000000000004b588                chthreads.c.4e8d9e67
 .debug_info    0x000000000004c5d6      0xac5 /var/folders/yg/3nxcpv294hvfwgl_w3cbnbrh0000gn/T//ccJFb7AH.debug.temp.o
                0x000000000004c5d6                chtm.c.eb9ab984
 .debug_info    0x000000000004d09b      0xa31 /var/folders/yg/3nxcpv294hvfwgl_w3cbnbrh0000gn/T//ccu18jlC.debug.temp.o
                0x000000000004d09b                chregistry.c.2d5e384b
 .debug_info    0x000000000004dacc      0xb46 /var/folders/yg/3nxcpv294hvfwgl_w3cbnbrh0000gn/T//ccGWGlU7.debug.temp.o
                0x000000000004dacc                chsem.c.f231b4ba
 .debug_info    0x000000000004e612      0xaae /var/folders/yg/3nxcpv294hvfwgl_w3cbnbrh0000gn/T//cczwCn8z.debug.temp.o
                0x000000000004e612                chmtx.c.77bbb2e6
 .debug_info    0x000000000004f0c0      0xa99 /var/folders/yg/3nxcpv294hvfwgl_w3cbnbrh0000gn/T//cchuCNYR.debug.temp.o
                0x000000000004f0c0                chcond.c.09aa10ef
 .debug_info    0x000000000004fb59      0xd5b /var/folders/yg/3nxcpv294hvfwgl_w3cbnbrh0000gn/T//ccsBzqQ4.debug.temp.o
                0x000000000004fb59                chevents.c.44ea1709
 .debug_info    0x00000000000508b4      0x971 /var/folders/yg/3nxcpv294hvfwgl_w3cbnbrh0000gn/T//ccCA6jco.debug.temp.o
                0x00000000000508b4                chmsg.c.1637a9b4
 .debug_info    0x0000000000051225      0xacc /var/folders/yg/3nxcpv294hvfwgl_w3cbnbrh0000gn/T//ccagiXP9.debug.temp.o
                0x0000000000051225                chdynamic.c.4f11ea45
 .debug_info    0x0000000000051cf1      0x5f6 /var/folders/yg/3nxcpv294hvfwgl_w3cbnbrh0000gn/T//ccz9cfOn.debug.temp.o
                0x0000000000051cf1                chmboxes.c.baf77d11
 .debug_info    0x00000000000522e7      0x2f0 /var/folders/yg/3nxcpv294hvfwgl_w3cbnbrh0000gn/T//ccVHwVMv.debug.temp.o
                0x00000000000522e7                chmemcore.c.5a75532c
 .debug_info    0x00000000000525d7      0xa47 /var/folders/yg/3nxcpv294hvfwgl_w3cbnbrh0000gn/T//cckBlZvD.debug.temp.o
                0x00000000000525d7                chmemheaps.c.0afbd924
 .debug_info    0x000000000005301e      0x588 /var/folders/yg/3nxcpv294hvfwgl_w3cbnbrh0000gn/T//ccJ1rvLE.debug.temp.o
                0x000000000005301e                chmempools.c.d8871426
 .debug_info    0x00000000000535a6      0xae9 /var/folders/yg/3nxcpv294hvfwgl_w3cbnbrh0000gn/T//ccsZX2SD.debug.temp.o
                0x00000000000535a6                chpipes.c.44462010
 .debug_info    0x000000000005408f      0x670 /var/folders/yg/3nxcpv294hvfwgl_w3cbnbrh0000gn/T//cc6FCR9q.debug.temp.o
                0x000000000005408f                chobjcaches.c.450093b9
 .debug_info    0x00000000000546ff      0xb70 /var/folders/yg/3nxcpv294hvfwgl_w3cbnbrh0000gn/T//ccmnndzo.debug.temp.o
                0x00000000000546ff                chdelegates.c.a6a0bad9
 .debug_info    0x000000000005526f     0x12d0 /var/folders/yg/3nxcpv294hvfwgl_w3cbnbrh0000gn/T//ccREkILu.debug.temp.o
                0x000000000005526f                chfactory.c.3393e190
 .debug_info    0x000000000005653f      0xf79 /var/folders/yg/3nxcpv294hvfwgl_w3cbnbrh0000gn/T//ccfUj7Ic.debug.temp.o
                0x000000000005653f                chcore.c.360f62f5
 .debug_info    0x00000000000574b8     0x1301 /var/folders/yg/3nxcpv294hvfwgl_w3cbnbrh0000gn/T//ccGvMwdD.debug.temp.o
                0x00000000000574b8                usbcfg.c.345c8150
 .debug_info    0x00000000000587b9      0x547 /var/folders/yg/3nxcpv294hvfwgl_w3cbnbrh0000gn/T//ccyx9CQf.debug.temp.o
                0x00000000000587b9                chprintf.c.53e15443
 .debug_info    0x0000000000058d00      0xcb9 /var/folders/yg/3nxcpv294hvfwgl_w3cbnbrh0000gn/T//cc2fkOpI.debug.temp.o
                0x0000000000058d00                shell.c.6e9897f4
 .debug_info    0x00000000000599b9      0xca8 /var/folders/yg/3nxcpv294hvfwgl_w3cbnbrh0000gn/T//cch7ycES.debug.temp.o
                0x00000000000599b9                shell_cmd.c.9f96c1bb
 .debug_info    0x000000000005a661      0xe7e /var/folders/yg/3nxcpv294hvfwgl_w3cbnbrh0000gn/T//ccWYoy8A.debug.temp.o
                0x000000000005a661                fatfs_diskio.c.4f19e681
 .debug_info    0x000000000005b4df      0x8b8 /var/folders/yg/3nxcpv294hvfwgl_w3cbnbrh0000gn/T//ccrBykP2.debug.temp.o
                0x000000000005b4df                fatfs_syscall.c.d5e56f97
 .debug_info    0x000000000005bd97     0x1fb9 /var/folders/yg/3nxcpv294hvfwgl_w3cbnbrh0000gn/T//ccd3BiZf.debug.temp.o
                0x000000000005bd97                ff.c.b9e873f2
 .debug_info    0x000000000005dd50      0x222 /var/folders/yg/3nxcpv294hvfwgl_w3cbnbrh0000gn/T//ccVHUzBX.debug.temp.o
                0x000000000005dd50                ffunicode.c.4ef36ba3
 .debug_info    0x000000000005df72      0x6f7 /var/folders/yg/3nxcpv294hvfwgl_w3cbnbrh0000gn/T//cc5GxNhn.debug.temp.o
                0x000000000005df72                ch_test.c.30196762
 .debug_info    0x000000000005e669      0x494 /var/folders/yg/3nxcpv294hvfwgl_w3cbnbrh0000gn/T//ccNCraa9.debug.temp.o
                0x000000000005e669                ch_test_printf.c.49e6bd3e
 .debug_info    0x000000000005eafd      0xa49 /var/folders/yg/3nxcpv294hvfwgl_w3cbnbrh0000gn/T//cczLSz6x.debug.temp.o
                0x000000000005eafd                rt_test_root.c.e5c81893
 .debug_info    0x000000000005f546      0x404 /var/folders/yg/3nxcpv294hvfwgl_w3cbnbrh0000gn/T//ccIzoWp0.debug.temp.o
                0x000000000005f546                rt_test_sequence_001.c.ea9b02fc
 .debug_info    0x000000000005f94a      0x739 /var/folders/yg/3nxcpv294hvfwgl_w3cbnbrh0000gn/T//cckQ3Wnr.debug.temp.o
                0x000000000005f94a                rt_test_sequence_002.c.5fb60149
 .debug_info    0x0000000000060083      0x43f /var/folders/yg/3nxcpv294hvfwgl_w3cbnbrh0000gn/T//ccVfZGDE.debug.temp.o
                0x0000000000060083                rt_test_sequence_003.c.27a7f68d
 .debug_info    0x00000000000604c2      0x56a /var/folders/yg/3nxcpv294hvfwgl_w3cbnbrh0000gn/T//ccWpQNbm.debug.temp.o
                0x00000000000604c2                rt_test_sequence_004.c.f46527b7
 .debug_info    0x0000000000060a2c      0xbe2 /var/folders/yg/3nxcpv294hvfwgl_w3cbnbrh0000gn/T//cc7reZA1.debug.temp.o
                0x0000000000060a2c                rt_test_sequence_005.c.abd691f4
 .debug_info    0x000000000006160e      0xb87 /var/folders/yg/3nxcpv294hvfwgl_w3cbnbrh0000gn/T//ccPhqrTt.debug.temp.o
                0x000000000006160e                rt_test_sequence_006.c.523fdff8
 .debug_info    0x0000000000062195      0xe21 /var/folders/yg/3nxcpv294hvfwgl_w3cbnbrh0000gn/T//ccmcEBBm.debug.temp.o
                0x0000000000062195                rt_test_sequence_007.c.7424688a
 .debug_info    0x0000000000062fb6      0xd17 /var/folders/yg/3nxcpv294hvfwgl_w3cbnbrh0000gn/T//ccwiXVqR.debug.temp.o
                0x0000000000062fb6                rt_test_sequence_008.c.0eaf384e
 .debug_info    0x0000000000063ccd      0xb62 /var/folders/yg/3nxcpv294hvfwgl_w3cbnbrh0000gn/T//ccyg6n8a.debug.temp.o
                0x0000000000063ccd                rt_test_sequence_009.c.f7463aa6
 .debug_info    0x000000000006482f      0xe9d /var/folders/yg/3nxcpv294hvfwgl_w3cbnbrh0000gn/T//ccVnyM8M.debug.temp.o
                0x000000000006482f                rt_test_sequence_010.c.16274a8a
 .debug_info    0x00000000000656cc      0xd0d /var/folders/yg/3nxcpv294hvfwgl_w3cbnbrh0000gn/T//cca1IPIp.debug.temp.o
                0x00000000000656cc                rt_test_sequence_011.c.c693da96
 .debug_info    0x00000000000663d9     0x10d6 /var/folders/yg/3nxcpv294hvfwgl_w3cbnbrh0000gn/T//ccX1xGxm.debug.temp.o
                0x00000000000663d9                rt_test_sequence_012.c.bacbe66e
 .debug_info    0x00000000000674af      0x213 /var/folders/yg/3nxcpv294hvfwgl_w3cbnbrh0000gn/T//cc3UofA7.debug.temp.o
                0x00000000000674af                oslib_test_root.c.45f765eb
 .debug_info    0x00000000000676c2      0x401 /var/folders/yg/3nxcpv294hvfwgl_w3cbnbrh0000gn/T//ccVq3MXJ.debug.temp.o
                0x00000000000676c2                oslib_test_sequence_001.c.a739e7b6
 .debug_info    0x0000000000067ac3      0x66d /var/folders/yg/3nxcpv294hvfwgl_w3cbnbrh0000gn/T//ccfwoRTi.debug.temp.o
                0x0000000000067ac3                oslib_test_sequence_002.c.5e73c2e4
 .debug_info    0x0000000000068130      0xc79 /var/folders/yg/3nxcpv294hvfwgl_w3cbnbrh0000gn/T//ccELGOWK.debug.temp.o
                0x0000000000068130                oslib_test_sequence_003.c.1d3f1eec
 .debug_info    0x0000000000068da9      0xf19 /var/folders/yg/3nxcpv294hvfwgl_w3cbnbrh0000gn/T//ccmQFuwB.debug.temp.o
                0x0000000000068da9                oslib_test_sequence_004.c.5bcff014
 .debug_info    0x0000000000069cc2      0xde0 /var/folders/yg/3nxcpv294hvfwgl_w3cbnbrh0000gn/T//cc1cQscI.debug.temp.o
                0x0000000000069cc2                oslib_test_sequence_005.c.b260c10a
 .debug_info    0x000000000006aaa2      0x83a /var/folders/yg/3nxcpv294hvfwgl_w3cbnbrh0000gn/T//cc4Di5Oo.debug.temp.o
                0x000000000006aaa2                oslib_test_sequence_006.c.14252164
 .debug_info    0x000000000006b2dc      0x61a /var/folders/yg/3nxcpv294hvfwgl_w3cbnbrh0000gn/T//ccoOqWUS.debug.temp.o
                0x000000000006b2dc                oslib_test_sequence_007.c.46545712
 .debug_info    0x000000000006b8f6      0xbe2 /var/folders/yg/3nxcpv294hvfwgl_w3cbnbrh0000gn/T//cc6STcVk.debug.temp.o
                0x000000000006b8f6                oslib_test_sequence_008.c.f25a1b20
 .debug_info    0x000000000006c4d8     0x10da /var/folders/yg/3nxcpv294hvfwgl_w3cbnbrh0000gn/T//cce7fzph.debug.temp.o
                0x000000000006c4d8                oslib_test_sequence_009.c.e99f626b
 .debug_info    0x000000000006d5b2     0x21db /var/folders/yg/3nxcpv294hvfwgl_w3cbnbrh0000gn/T//ccin0BHY.debug.temp.o
                0x000000000006d5b2                main.c.560d7372

.debug_abbrev   0x0000000000000000     0x9476
 .debug_abbrev  0x0000000000000000       0x14 ./build/obj/crt0_v7m.o
 .debug_abbrev  0x0000000000000014       0x14 ./build/obj/vectors.o
 .debug_abbrev  0x0000000000000028       0x14 ./build/obj/chcoreasm.o
 .debug_abbrev  0x000000000000003c      0x3fe /var/folders/yg/3nxcpv294hvfwgl_w3cbnbrh0000gn/T//ch.elf.rjwPRd.ltrans0.ltrans.o
 .debug_abbrev  0x000000000000043a      0x3a6 /var/folders/yg/3nxcpv294hvfwgl_w3cbnbrh0000gn/T//ch.elf.rjwPRd.ltrans1.ltrans.o
 .debug_abbrev  0x00000000000007e0       0xe5 /var/folders/yg/3nxcpv294hvfwgl_w3cbnbrh0000gn/T//ccsc4w2v.debug.temp.o
 .debug_abbrev  0x00000000000008c5       0xa0 /var/folders/yg/3nxcpv294hvfwgl_w3cbnbrh0000gn/T//ccEnBsBL.debug.temp.o
 .debug_abbrev  0x0000000000000965      0x13b /var/folders/yg/3nxcpv294hvfwgl_w3cbnbrh0000gn/T//ccnPPcf1.debug.temp.o
 .debug_abbrev  0x0000000000000aa0      0x1b3 /var/folders/yg/3nxcpv294hvfwgl_w3cbnbrh0000gn/T//ccqqkKEK.debug.temp.o
 .debug_abbrev  0x0000000000000c53      0x19d /var/folders/yg/3nxcpv294hvfwgl_w3cbnbrh0000gn/T//ccaHgcBV.debug.temp.o
 .debug_abbrev  0x0000000000000df0      0x2a2 /var/folders/yg/3nxcpv294hvfwgl_w3cbnbrh0000gn/T//ccoEuz8b.debug.temp.o
 .debug_abbrev  0x0000000000001092      0x2d2 /var/folders/yg/3nxcpv294hvfwgl_w3cbnbrh0000gn/T//cc47Gxtg.debug.temp.o
 .debug_abbrev  0x0000000000001364      0x21e /var/folders/yg/3nxcpv294hvfwgl_w3cbnbrh0000gn/T//cckFYBf2.debug.temp.o
 .debug_abbrev  0x0000000000001582      0x130 /var/folders/yg/3nxcpv294hvfwgl_w3cbnbrh0000gn/T//cc0tMju5.debug.temp.o
 .debug_abbrev  0x00000000000016b2       0x5c /var/folders/yg/3nxcpv294hvfwgl_w3cbnbrh0000gn/T//ccHzzi5N.debug.temp.o
 .debug_abbrev  0x000000000000170e       0xce /var/folders/yg/3nxcpv294hvfwgl_w3cbnbrh0000gn/T//ccFQM362.debug.temp.o
 .debug_abbrev  0x00000000000017dc      0x189 /var/folders/yg/3nxcpv294hvfwgl_w3cbnbrh0000gn/T//ccc8RR6m.debug.temp.o
 .debug_abbrev  0x0000000000001965      0x10f /var/folders/yg/3nxcpv294hvfwgl_w3cbnbrh0000gn/T//ccch4slX.debug.temp.o
 .debug_abbrev  0x0000000000001a74      0x2df /var/folders/yg/3nxcpv294hvfwgl_w3cbnbrh0000gn/T//ccKW2t2M.debug.temp.o
 .debug_abbrev  0x0000000000001d53      0x118 /var/folders/yg/3nxcpv294hvfwgl_w3cbnbrh0000gn/T//ccqB9LUH.debug.temp.o
 .debug_abbrev  0x0000000000001e6b      0x268 /var/folders/yg/3nxcpv294hvfwgl_w3cbnbrh0000gn/T//ccYHJ1B4.debug.temp.o
 .debug_abbrev  0x00000000000020d3      0x1c2 /var/folders/yg/3nxcpv294hvfwgl_w3cbnbrh0000gn/T//cc3QhnFJ.debug.temp.o
 .debug_abbrev  0x0000000000002295      0x2c6 /var/folders/yg/3nxcpv294hvfwgl_w3cbnbrh0000gn/T//ccLsnWLb.debug.temp.o
 .debug_abbrev  0x000000000000255b      0x14c /var/folders/yg/3nxcpv294hvfwgl_w3cbnbrh0000gn/T//ccOLTT8T.debug.temp.o
 .debug_abbrev  0x00000000000026a7      0x26b /var/folders/yg/3nxcpv294hvfwgl_w3cbnbrh0000gn/T//ccyES0dk.debug.temp.o
 .debug_abbrev  0x0000000000002912      0x215 /var/folders/yg/3nxcpv294hvfwgl_w3cbnbrh0000gn/T//cc2eTdRk.debug.temp.o
 .debug_abbrev  0x0000000000002b27      0x218 /var/folders/yg/3nxcpv294hvfwgl_w3cbnbrh0000gn/T//ccrq9Vrw.debug.temp.o
 .debug_abbrev  0x0000000000002d3f      0x28a /var/folders/yg/3nxcpv294hvfwgl_w3cbnbrh0000gn/T//cca9wbrn.debug.temp.o
 .debug_abbrev  0x0000000000002fc9      0x1a7 /var/folders/yg/3nxcpv294hvfwgl_w3cbnbrh0000gn/T//ccJFb7AH.debug.temp.o
 .debug_abbrev  0x0000000000003170      0x21d /var/folders/yg/3nxcpv294hvfwgl_w3cbnbrh0000gn/T//ccu18jlC.debug.temp.o
 .debug_abbrev  0x000000000000338d      0x258 /var/folders/yg/3nxcpv294hvfwgl_w3cbnbrh0000gn/T//ccGWGlU7.debug.temp.o
 .debug_abbrev  0x00000000000035e5      0x256 /var/folders/yg/3nxcpv294hvfwgl_w3cbnbrh0000gn/T//cczwCn8z.debug.temp.o
 .debug_abbrev  0x000000000000383b      0x258 /var/folders/yg/3nxcpv294hvfwgl_w3cbnbrh0000gn/T//cchuCNYR.debug.temp.o
 .debug_abbrev  0x0000000000003a93      0x250 /var/folders/yg/3nxcpv294hvfwgl_w3cbnbrh0000gn/T//ccsBzqQ4.debug.temp.o
 .debug_abbrev  0x0000000000003ce3      0x22d /var/folders/yg/3nxcpv294hvfwgl_w3cbnbrh0000gn/T//ccCA6jco.debug.temp.o
 .debug_abbrev  0x0000000000003f10      0x1cd /var/folders/yg/3nxcpv294hvfwgl_w3cbnbrh0000gn/T//ccagiXP9.debug.temp.o
 .debug_abbrev  0x00000000000040dd      0x17d /var/folders/yg/3nxcpv294hvfwgl_w3cbnbrh0000gn/T//ccz9cfOn.debug.temp.o
 .debug_abbrev  0x000000000000425a      0x154 /var/folders/yg/3nxcpv294hvfwgl_w3cbnbrh0000gn/T//ccVHwVMv.debug.temp.o
 .debug_abbrev  0x00000000000043ae      0x229 /var/folders/yg/3nxcpv294hvfwgl_w3cbnbrh0000gn/T//cckBlZvD.debug.temp.o
 .debug_abbrev  0x00000000000045d7      0x1b6 /var/folders/yg/3nxcpv294hvfwgl_w3cbnbrh0000gn/T//ccJ1rvLE.debug.temp.o
 .debug_abbrev  0x000000000000478d      0x1ea /var/folders/yg/3nxcpv294hvfwgl_w3cbnbrh0000gn/T//ccsZX2SD.debug.temp.o
 .debug_abbrev  0x0000000000004977      0x1b9 /var/folders/yg/3nxcpv294hvfwgl_w3cbnbrh0000gn/T//cc6FCR9q.debug.temp.o
 .debug_abbrev  0x0000000000004b30      0x212 /var/folders/yg/3nxcpv294hvfwgl_w3cbnbrh0000gn/T//ccmnndzo.debug.temp.o
 .debug_abbrev  0x0000000000004d42      0x23e /var/folders/yg/3nxcpv294hvfwgl_w3cbnbrh0000gn/T//ccREkILu.debug.temp.o
 .debug_abbrev  0x0000000000004f80      0x22d /var/folders/yg/3nxcpv294hvfwgl_w3cbnbrh0000gn/T//ccfUj7Ic.debug.temp.o
 .debug_abbrev  0x00000000000051ad      0x24f /var/folders/yg/3nxcpv294hvfwgl_w3cbnbrh0000gn/T//ccGvMwdD.debug.temp.o
 .debug_abbrev  0x00000000000053fc      0x1a6 /var/folders/yg/3nxcpv294hvfwgl_w3cbnbrh0000gn/T//ccyx9CQf.debug.temp.o
 .debug_abbrev  0x00000000000055a2      0x274 /var/folders/yg/3nxcpv294hvfwgl_w3cbnbrh0000gn/T//cc2fkOpI.debug.temp.o
 .debug_abbrev  0x0000000000005816      0x217 /var/folders/yg/3nxcpv294hvfwgl_w3cbnbrh0000gn/T//cch7ycES.debug.temp.o
 .debug_abbrev  0x0000000000005a2d      0x1e8 /var/folders/yg/3nxcpv294hvfwgl_w3cbnbrh0000gn/T//ccWYoy8A.debug.temp.o
 .debug_abbrev  0x0000000000005c15      0x16f /var/folders/yg/3nxcpv294hvfwgl_w3cbnbrh0000gn/T//ccrBykP2.debug.temp.o
 .debug_abbrev  0x0000000000005d84      0x184 /var/folders/yg/3nxcpv294hvfwgl_w3cbnbrh0000gn/T//ccd3BiZf.debug.temp.o
 .debug_abbrev  0x0000000000005f08       0xac /var/folders/yg/3nxcpv294hvfwgl_w3cbnbrh0000gn/T//ccVHUzBX.debug.temp.o
 .debug_abbrev  0x0000000000005fb4      0x212 /var/folders/yg/3nxcpv294hvfwgl_w3cbnbrh0000gn/T//cc5GxNhn.debug.temp.o
 .debug_abbrev  0x00000000000061c6      0x1c2 /var/folders/yg/3nxcpv294hvfwgl_w3cbnbrh0000gn/T//ccNCraa9.debug.temp.o
 .debug_abbrev  0x0000000000006388      0x21b /var/folders/yg/3nxcpv294hvfwgl_w3cbnbrh0000gn/T//cczLSz6x.debug.temp.o
 .debug_abbrev  0x00000000000065a3      0x168 /var/folders/yg/3nxcpv294hvfwgl_w3cbnbrh0000gn/T//ccIzoWp0.debug.temp.o
 .debug_abbrev  0x000000000000670b      0x1e0 /var/folders/yg/3nxcpv294hvfwgl_w3cbnbrh0000gn/T//cckQ3Wnr.debug.temp.o
 .debug_abbrev  0x00000000000068eb      0x178 /var/folders/yg/3nxcpv294hvfwgl_w3cbnbrh0000gn/T//ccVfZGDE.debug.temp.o
 .debug_abbrev  0x0000000000006a63      0x1de /var/folders/yg/3nxcpv294hvfwgl_w3cbnbrh0000gn/T//ccWpQNbm.debug.temp.o
 .debug_abbrev  0x0000000000006c41      0x273 /var/folders/yg/3nxcpv294hvfwgl_w3cbnbrh0000gn/T//cc7reZA1.debug.temp.o
 .debug_abbrev  0x0000000000006eb4      0x255 /var/folders/yg/3nxcpv294hvfwgl_w3cbnbrh0000gn/T//ccPhqrTt.debug.temp.o
 .debug_abbrev  0x0000000000007109      0x298 /var/folders/yg/3nxcpv294hvfwgl_w3cbnbrh0000gn/T//ccmcEBBm.debug.temp.o
 .debug_abbrev  0x00000000000073a1      0x258 /var/folders/yg/3nxcpv294hvfwgl_w3cbnbrh0000gn/T//ccwiXVqR.debug.temp.o
 .debug_abbrev  0x00000000000075f9      0x249 /var/folders/yg/3nxcpv294hvfwgl_w3cbnbrh0000gn/T//ccyg6n8a.debug.temp.o
 .debug_abbrev  0x0000000000007842      0x29e /var/folders/yg/3nxcpv294hvfwgl_w3cbnbrh0000gn/T//ccVnyM8M.debug.temp.o
 .debug_abbrev  0x0000000000007ae0      0x22f /var/folders/yg/3nxcpv294hvfwgl_w3cbnbrh0000gn/T//cca1IPIp.debug.temp.o
 .debug_abbrev  0x0000000000007d0f      0x2b4 /var/folders/yg/3nxcpv294hvfwgl_w3cbnbrh0000gn/T//ccX1xGxm.debug.temp.o
 .debug_abbrev  0x0000000000007fc3       0xaf /var/folders/yg/3nxcpv294hvfwgl_w3cbnbrh0000gn/T//cc3UofA7.debug.temp.o
 .debug_abbrev  0x0000000000008072      0x159 /var/folders/yg/3nxcpv294hvfwgl_w3cbnbrh0000gn/T//ccVq3MXJ.debug.temp.o
 .debug_abbrev  0x00000000000081cb      0x1c4 /var/folders/yg/3nxcpv294hvfwgl_w3cbnbrh0000gn/T//ccfwoRTi.debug.temp.o
 .debug_abbrev  0x000000000000838f      0x20a /var/folders/yg/3nxcpv294hvfwgl_w3cbnbrh0000gn/T//ccELGOWK.debug.temp.o
 .debug_abbrev  0x0000000000008599      0x268 /var/folders/yg/3nxcpv294hvfwgl_w3cbnbrh0000gn/T//ccmQFuwB.debug.temp.o
 .debug_abbrev  0x0000000000008801      0x226 /var/folders/yg/3nxcpv294hvfwgl_w3cbnbrh0000gn/T//cc1cQscI.debug.temp.o
 .debug_abbrev  0x0000000000008a27      0x1c1 /var/folders/yg/3nxcpv294hvfwgl_w3cbnbrh0000gn/T//cc4Di5Oo.debug.temp.o
 .debug_abbrev  0x0000000000008be8      0x18a /var/folders/yg/3nxcpv294hvfwgl_w3cbnbrh0000gn/T//ccoOqWUS.debug.temp.o
 .debug_abbrev  0x0000000000008d72      0x1f6 /var/folders/yg/3nxcpv294hvfwgl_w3cbnbrh0000gn/T//cc6STcVk.debug.temp.o
 .debug_abbrev  0x0000000000008f68      0x1fd /var/folders/yg/3nxcpv294hvfwgl_w3cbnbrh0000gn/T//cce7fzph.debug.temp.o
 .debug_abbrev  0x0000000000009165      0x311 /var/folders/yg/3nxcpv294hvfwgl_w3cbnbrh0000gn/T//ccin0BHY.debug.temp.o

.debug_aranges  0x0000000000000000      0xa08
 .debug_aranges
                0x0000000000000000       0x20 ./build/obj/crt0_v7m.o
 .debug_aranges
                0x0000000000000020       0x20 ./build/obj/vectors.o
 .debug_aranges
                0x0000000000000040       0x20 ./build/obj/chcoreasm.o
 .debug_aranges
                0x0000000000000060      0x690 /var/folders/yg/3nxcpv294hvfwgl_w3cbnbrh0000gn/T//ch.elf.rjwPRd.ltrans0.ltrans.o
 .debug_aranges
                0x00000000000006f0      0x318 /var/folders/yg/3nxcpv294hvfwgl_w3cbnbrh0000gn/T//ch.elf.rjwPRd.ltrans1.ltrans.o

.debug_str      0x0000000000000000     0x7e98
 .debug_str     0x0000000000000000       0x94 ./build/obj/crt0_v7m.o
 .debug_str     0x0000000000000094       0x3a ./build/obj/vectors.o
                                         0x93 (size before relaxing)
 .debug_str     0x00000000000000ce       0x3b ./build/obj/chcoreasm.o
                                         0x94 (size before relaxing)
 .debug_str     0x0000000000000109      0x349 /var/folders/yg/3nxcpv294hvfwgl_w3cbnbrh0000gn/T//ch.elf.rjwPRd.ltrans0.ltrans.o
                                        0x3c5 (size before relaxing)
 .debug_str     0x0000000000000452       0x69 /var/folders/yg/3nxcpv294hvfwgl_w3cbnbrh0000gn/T//ch.elf.rjwPRd.ltrans1.ltrans.o
                                        0x2f9 (size before relaxing)
 .debug_str     0x00000000000004bb      0x3ba /var/folders/yg/3nxcpv294hvfwgl_w3cbnbrh0000gn/T//ccsc4w2v.debug.temp.o
                                        0x46d (size before relaxing)
 .debug_str     0x0000000000000875       0x9e /var/folders/yg/3nxcpv294hvfwgl_w3cbnbrh0000gn/T//ccEnBsBL.debug.temp.o
                                        0x24a (size before relaxing)
 .debug_str     0x0000000000000913      0x143 /var/folders/yg/3nxcpv294hvfwgl_w3cbnbrh0000gn/T//ccnPPcf1.debug.temp.o
                                        0x30a (size before relaxing)
 .debug_str     0x0000000000000a56      0x39e /var/folders/yg/3nxcpv294hvfwgl_w3cbnbrh0000gn/T//ccqqkKEK.debug.temp.o
                                        0x59e (size before relaxing)
 .debug_str     0x0000000000000df4      0x43b /var/folders/yg/3nxcpv294hvfwgl_w3cbnbrh0000gn/T//ccaHgcBV.debug.temp.o
                                        0x661 (size before relaxing)
 .debug_str     0x000000000000122f      0x77b /var/folders/yg/3nxcpv294hvfwgl_w3cbnbrh0000gn/T//ccoEuz8b.debug.temp.o
                                        0xbd2 (size before relaxing)
 .debug_str     0x00000000000019aa      0x676 /var/folders/yg/3nxcpv294hvfwgl_w3cbnbrh0000gn/T//cc47Gxtg.debug.temp.o
                                        0xdbf (size before relaxing)
 .debug_str     0x0000000000002020      0x1b4 /var/folders/yg/3nxcpv294hvfwgl_w3cbnbrh0000gn/T//cckFYBf2.debug.temp.o
                                        0x864 (size before relaxing)
 .debug_str     0x00000000000021d4      0x14f /var/folders/yg/3nxcpv294hvfwgl_w3cbnbrh0000gn/T//cc0tMju5.debug.temp.o
                                        0x348 (size before relaxing)
 .debug_str     0x0000000000002323      0x420 /var/folders/yg/3nxcpv294hvfwgl_w3cbnbrh0000gn/T//ccHzzi5N.debug.temp.o
                                        0x5ca (size before relaxing)
 .debug_str     0x0000000000002743       0xee /var/folders/yg/3nxcpv294hvfwgl_w3cbnbrh0000gn/T//ccFQM362.debug.temp.o
                                        0x2cc (size before relaxing)
 .debug_str     0x0000000000002831      0x157 /var/folders/yg/3nxcpv294hvfwgl_w3cbnbrh0000gn/T//ccc8RR6m.debug.temp.o
                                        0x45d (size before relaxing)
 .debug_str     0x0000000000002988       0x9d /var/folders/yg/3nxcpv294hvfwgl_w3cbnbrh0000gn/T//ccch4slX.debug.temp.o
                                        0x30b (size before relaxing)
 .debug_str     0x0000000000002a25      0x259 /var/folders/yg/3nxcpv294hvfwgl_w3cbnbrh0000gn/T//ccKW2t2M.debug.temp.o
                                        0xbeb (size before relaxing)
 .debug_str     0x0000000000002c7e       0x92 /var/folders/yg/3nxcpv294hvfwgl_w3cbnbrh0000gn/T//ccqB9LUH.debug.temp.o
                                        0x374 (size before relaxing)
 .debug_str     0x0000000000002d10      0x25d /var/folders/yg/3nxcpv294hvfwgl_w3cbnbrh0000gn/T//ccYHJ1B4.debug.temp.o
                                        0x88e (size before relaxing)
 .debug_str     0x0000000000002f6d       0x6e /var/folders/yg/3nxcpv294hvfwgl_w3cbnbrh0000gn/T//cc3QhnFJ.debug.temp.o
                                        0x910 (size before relaxing)
 .debug_str     0x0000000000002fdb      0x314 /var/folders/yg/3nxcpv294hvfwgl_w3cbnbrh0000gn/T//ccLsnWLb.debug.temp.o
                                        0x98e (size before relaxing)
 .debug_str     0x00000000000032ef       0x4a /var/folders/yg/3nxcpv294hvfwgl_w3cbnbrh0000gn/T//ccOLTT8T.debug.temp.o
                                        0x5d0 (size before relaxing)
 .debug_str     0x0000000000003339      0x236 /var/folders/yg/3nxcpv294hvfwgl_w3cbnbrh0000gn/T//ccyES0dk.debug.temp.o
                                        0x866 (size before relaxing)
 .debug_str     0x000000000000356f      0x1a6 /var/folders/yg/3nxcpv294hvfwgl_w3cbnbrh0000gn/T//cc2eTdRk.debug.temp.o
                                        0x7f7 (size before relaxing)
 .debug_str     0x0000000000003715      0x1b5 /var/folders/yg/3nxcpv294hvfwgl_w3cbnbrh0000gn/T//ccrq9Vrw.debug.temp.o
                                        0x83a (size before relaxing)
 .debug_str     0x00000000000038ca      0x28b /var/folders/yg/3nxcpv294hvfwgl_w3cbnbrh0000gn/T//cca9wbrn.debug.temp.o
                                        0x924 (size before relaxing)
 .debug_str     0x0000000000003b55       0x7e /var/folders/yg/3nxcpv294hvfwgl_w3cbnbrh0000gn/T//ccJFb7AH.debug.temp.o
                                        0x7bb (size before relaxing)
 .debug_str     0x0000000000003bd3       0xa1 /var/folders/yg/3nxcpv294hvfwgl_w3cbnbrh0000gn/T//ccu18jlC.debug.temp.o
                                        0x747 (size before relaxing)
 .debug_str     0x0000000000003c74       0xdf /var/folders/yg/3nxcpv294hvfwgl_w3cbnbrh0000gn/T//ccGWGlU7.debug.temp.o
                                        0x71e (size before relaxing)
 .debug_str     0x0000000000003d53       0xba /var/folders/yg/3nxcpv294hvfwgl_w3cbnbrh0000gn/T//cczwCn8z.debug.temp.o
                                        0x6ee (size before relaxing)
 .debug_str     0x0000000000003e0d       0xe0 /var/folders/yg/3nxcpv294hvfwgl_w3cbnbrh0000gn/T//cchuCNYR.debug.temp.o
                                        0x716 (size before relaxing)
 .debug_str     0x0000000000003eed      0x1b9 /var/folders/yg/3nxcpv294hvfwgl_w3cbnbrh0000gn/T//ccsBzqQ4.debug.temp.o
                                        0x807 (size before relaxing)
 .debug_str     0x00000000000040a6       0x78 /var/folders/yg/3nxcpv294hvfwgl_w3cbnbrh0000gn/T//ccCA6jco.debug.temp.o
                                        0x68b (size before relaxing)
 .debug_str     0x000000000000411e       0xbf /var/folders/yg/3nxcpv294hvfwgl_w3cbnbrh0000gn/T//ccagiXP9.debug.temp.o
                                        0x6fd (size before relaxing)
 .debug_str     0x00000000000041dd      0x10e /var/folders/yg/3nxcpv294hvfwgl_w3cbnbrh0000gn/T//ccz9cfOn.debug.temp.o
                                        0x3de (size before relaxing)
 .debug_str     0x00000000000042eb       0xce /var/folders/yg/3nxcpv294hvfwgl_w3cbnbrh0000gn/T//ccVHwVMv.debug.temp.o
                                        0x30c (size before relaxing)
 .debug_str     0x00000000000043b9       0x9d /var/folders/yg/3nxcpv294hvfwgl_w3cbnbrh0000gn/T//cckBlZvD.debug.temp.o
                                        0x6ab (size before relaxing)
 .debug_str     0x0000000000004456      0x13c /var/folders/yg/3nxcpv294hvfwgl_w3cbnbrh0000gn/T//ccJ1rvLE.debug.temp.o
                                        0x420 (size before relaxing)
 .debug_str     0x0000000000004592       0xbf /var/folders/yg/3nxcpv294hvfwgl_w3cbnbrh0000gn/T//ccsZX2SD.debug.temp.o
                                        0x6bf (size before relaxing)
 .debug_str     0x0000000000004651      0x1e8 /var/folders/yg/3nxcpv294hvfwgl_w3cbnbrh0000gn/T//cc6FCR9q.debug.temp.o
                                        0x487 (size before relaxing)
 .debug_str     0x0000000000004839      0x180 /var/folders/yg/3nxcpv294hvfwgl_w3cbnbrh0000gn/T//ccmnndzo.debug.temp.o
                                        0x761 (size before relaxing)
 .debug_str     0x00000000000049b9      0x481 /var/folders/yg/3nxcpv294hvfwgl_w3cbnbrh0000gn/T//ccREkILu.debug.temp.o
                                        0xb16 (size before relaxing)
 .debug_str     0x0000000000004e3a      0x13d /var/folders/yg/3nxcpv294hvfwgl_w3cbnbrh0000gn/T//ccfUj7Ic.debug.temp.o
                                        0xc61 (size before relaxing)
 .debug_str     0x0000000000004f77      0x143 /var/folders/yg/3nxcpv294hvfwgl_w3cbnbrh0000gn/T//ccGvMwdD.debug.temp.o
                                        0xcd3 (size before relaxing)
 .debug_str     0x00000000000050ba      0x12e /var/folders/yg/3nxcpv294hvfwgl_w3cbnbrh0000gn/T//ccyx9CQf.debug.temp.o
                                        0x36b (size before relaxing)
 .debug_str     0x00000000000051e8      0x173 /var/folders/yg/3nxcpv294hvfwgl_w3cbnbrh0000gn/T//cc2fkOpI.debug.temp.o
                                        0x7ff (size before relaxing)
 .debug_str     0x000000000000535b      0x106 /var/folders/yg/3nxcpv294hvfwgl_w3cbnbrh0000gn/T//cch7ycES.debug.temp.o
                                        0x78a (size before relaxing)
 .debug_str     0x0000000000005461       0xd8 /var/folders/yg/3nxcpv294hvfwgl_w3cbnbrh0000gn/T//ccWYoy8A.debug.temp.o
                                        0x8f8 (size before relaxing)
 .debug_str     0x0000000000005539       0x5d /var/folders/yg/3nxcpv294hvfwgl_w3cbnbrh0000gn/T//ccrBykP2.debug.temp.o
                                        0x661 (size before relaxing)
 .debug_str     0x0000000000005596      0x634 /var/folders/yg/3nxcpv294hvfwgl_w3cbnbrh0000gn/T//ccd3BiZf.debug.temp.o
                                        0x8bf (size before relaxing)
 .debug_str     0x0000000000005bca       0x58 /var/folders/yg/3nxcpv294hvfwgl_w3cbnbrh0000gn/T//ccVHUzBX.debug.temp.o
                                        0x23b (size before relaxing)
 .debug_str     0x0000000000005c22      0x25c /var/folders/yg/3nxcpv294hvfwgl_w3cbnbrh0000gn/T//cc5GxNhn.debug.temp.o
                                        0x5a4 (size before relaxing)
 .debug_str     0x0000000000005e7e       0x62 /var/folders/yg/3nxcpv294hvfwgl_w3cbnbrh0000gn/T//ccNCraa9.debug.temp.o
                                        0x390 (size before relaxing)
 .debug_str     0x0000000000005ee0      0x192 /var/folders/yg/3nxcpv294hvfwgl_w3cbnbrh0000gn/T//cczLSz6x.debug.temp.o
                                        0x7fc (size before relaxing)
 .debug_str     0x0000000000006072       0xeb /var/folders/yg/3nxcpv294hvfwgl_w3cbnbrh0000gn/T//ccIzoWp0.debug.temp.o
                                        0x3f6 (size before relaxing)
 .debug_str     0x000000000000615d      0x165 /var/folders/yg/3nxcpv294hvfwgl_w3cbnbrh0000gn/T//cckQ3Wnr.debug.temp.o
                                        0x61a (size before relaxing)
 .debug_str     0x00000000000062c2       0x9f /var/folders/yg/3nxcpv294hvfwgl_w3cbnbrh0000gn/T//ccVfZGDE.debug.temp.o
                                        0x3f2 (size before relaxing)
 .debug_str     0x0000000000006361       0xa0 /var/folders/yg/3nxcpv294hvfwgl_w3cbnbrh0000gn/T//ccWpQNbm.debug.temp.o
                                        0x4b6 (size before relaxing)
 .debug_str     0x0000000000006401       0xef /var/folders/yg/3nxcpv294hvfwgl_w3cbnbrh0000gn/T//cc7reZA1.debug.temp.o
                                        0x85c (size before relaxing)
 .debug_str     0x00000000000064f0       0x8d /var/folders/yg/3nxcpv294hvfwgl_w3cbnbrh0000gn/T//ccPhqrTt.debug.temp.o
                                        0x7fb (size before relaxing)
 .debug_str     0x000000000000657d      0x2b2 /var/folders/yg/3nxcpv294hvfwgl_w3cbnbrh0000gn/T//ccmcEBBm.debug.temp.o
                                        0xa3b (size before relaxing)
 .debug_str     0x000000000000682f      0x1fe /var/folders/yg/3nxcpv294hvfwgl_w3cbnbrh0000gn/T//ccwiXVqR.debug.temp.o
                                        0x965 (size before relaxing)
 .debug_str     0x0000000000006a2d       0x83 /var/folders/yg/3nxcpv294hvfwgl_w3cbnbrh0000gn/T//ccyg6n8a.debug.temp.o
                                        0x7a8 (size before relaxing)
 .debug_str     0x0000000000006ab0      0x23d /var/folders/yg/3nxcpv294hvfwgl_w3cbnbrh0000gn/T//ccVnyM8M.debug.temp.o
                                        0xa23 (size before relaxing)
 .debug_str     0x0000000000006ced       0xfd /var/folders/yg/3nxcpv294hvfwgl_w3cbnbrh0000gn/T//cca1IPIp.debug.temp.o
                                        0x886 (size before relaxing)
 .debug_str     0x0000000000006dea      0x2c5 /var/folders/yg/3nxcpv294hvfwgl_w3cbnbrh0000gn/T//ccX1xGxm.debug.temp.o
                                        0xb04 (size before relaxing)
 .debug_str     0x00000000000070af      0x121 /var/folders/yg/3nxcpv294hvfwgl_w3cbnbrh0000gn/T//cc3UofA7.debug.temp.o
                                        0x335 (size before relaxing)
 .debug_str     0x00000000000071d0       0xe2 /var/folders/yg/3nxcpv294hvfwgl_w3cbnbrh0000gn/T//ccVq3MXJ.debug.temp.o
                                        0x414 (size before relaxing)
 .debug_str     0x00000000000072b2      0x1a1 /var/folders/yg/3nxcpv294hvfwgl_w3cbnbrh0000gn/T//ccfwoRTi.debug.temp.o
                                        0x5b6 (size before relaxing)
 .debug_str     0x0000000000007453      0x106 /var/folders/yg/3nxcpv294hvfwgl_w3cbnbrh0000gn/T//ccELGOWK.debug.temp.o
                                        0x7d7 (size before relaxing)
 .debug_str     0x0000000000007559      0x16c /var/folders/yg/3nxcpv294hvfwgl_w3cbnbrh0000gn/T//ccmQFuwB.debug.temp.o
                                        0x936 (size before relaxing)
 .debug_str     0x00000000000076c5      0x147 /var/folders/yg/3nxcpv294hvfwgl_w3cbnbrh0000gn/T//cc1cQscI.debug.temp.o
                                        0x895 (size before relaxing)
 .debug_str     0x000000000000780c       0xda /var/folders/yg/3nxcpv294hvfwgl_w3cbnbrh0000gn/T//cc4Di5Oo.debug.temp.o
                                        0x5c0 (size before relaxing)
 .debug_str     0x00000000000078e6      0x140 /var/folders/yg/3nxcpv294hvfwgl_w3cbnbrh0000gn/T//ccoOqWUS.debug.temp.o
                                        0x54d (size before relaxing)
 .debug_str     0x0000000000007a26      0x100 /var/folders/yg/3nxcpv294hvfwgl_w3cbnbrh0000gn/T//cc6STcVk.debug.temp.o
                                        0x820 (size before relaxing)
 .debug_str     0x0000000000007b26      0x274 /var/folders/yg/3nxcpv294hvfwgl_w3cbnbrh0000gn/T//cce7fzph.debug.temp.o
                                        0xb04 (size before relaxing)
 .debug_str     0x0000000000007d9a       0xfe /var/folders/yg/3nxcpv294hvfwgl_w3cbnbrh0000gn/T//ccin0BHY.debug.temp.o
                                       0x131d (size before relaxing)

.debug_loc      0x0000000000000000    0x2fd53
 .debug_loc     0x0000000000000000    0x1b649 /var/folders/yg/3nxcpv294hvfwgl_w3cbnbrh0000gn/T//ch.elf.rjwPRd.ltrans0.ltrans.o
 .debug_loc     0x000000000001b649    0x1470a /var/folders/yg/3nxcpv294hvfwgl_w3cbnbrh0000gn/T//ch.elf.rjwPRd.ltrans1.ltrans.o

.debug_ranges   0x0000000000000000    0x1dde8
 .debug_ranges  0x0000000000000000     0xff08 /var/folders/yg/3nxcpv294hvfwgl_w3cbnbrh0000gn/T//ch.elf.rjwPRd.ltrans0.ltrans.o
 .debug_ranges  0x000000000000ff08     0xdee0 /var/folders/yg/3nxcpv294hvfwgl_w3cbnbrh0000gn/T//ch.elf.rjwPRd.ltrans1.ltrans.o

.debug_frame    0x0000000000000000     0x2974
 .debug_frame   0x0000000000000000     0x19e4 /var/folders/yg/3nxcpv294hvfwgl_w3cbnbrh0000gn/T//ch.elf.rjwPRd.ltrans0.ltrans.o
 .debug_frame   0x00000000000019e4      0xe08 /var/folders/yg/3nxcpv294hvfwgl_w3cbnbrh0000gn/T//ch.elf.rjwPRd.ltrans1.ltrans.o
 .debug_frame   0x00000000000027ec       0x28 /usr/local/Caskroom/gcc-arm-embedded/10-2020-q4-major/gcc-arm-none-eabi-10-2020-q4-major/bin/../lib/gcc/arm-none-eabi/10.2.1/../../../../arm-none-eabi/lib/thumb/v7-m/nofp/libg.a(lib_a-memcmp.o)
 .debug_frame   0x0000000000002814       0x2c /usr/local/Caskroom/gcc-arm-embedded/10-2020-q4-major/gcc-arm-none-eabi-10-2020-q4-major/bin/../lib/gcc/arm-none-eabi/10.2.1/../../../../arm-none-eabi/lib/thumb/v7-m/nofp/libg.a(lib_a-memset.o)
 .debug_frame   0x0000000000002840       0x34 /usr/local/Caskroom/gcc-arm-embedded/10-2020-q4-major/gcc-arm-none-eabi-10-2020-q4-major/bin/../lib/gcc/arm-none-eabi/10.2.1/../../../../arm-none-eabi/lib/thumb/v7-m/nofp/libg.a(lib_a-strchr.o)
 .debug_frame   0x0000000000002874       0x34 /usr/local/Caskroom/gcc-arm-embedded/10-2020-q4-major/gcc-arm-none-eabi-10-2020-q4-major/bin/../lib/gcc/arm-none-eabi/10.2.1/../../../../arm-none-eabi/lib/thumb/v7-m/nofp/libg.a(lib_a-strcmp.o)
 .debug_frame   0x00000000000028a8       0x20 /usr/local/Caskroom/gcc-arm-embedded/10-2020-q4-major/gcc-arm-none-eabi-10-2020-q4-major/bin/../lib/gcc/arm-none-eabi/10.2.1/../../../../arm-none-eabi/lib/thumb/v7-m/nofp/libg.a(lib_a-strcpy.o)
 .debug_frame   0x00000000000028c8       0x20 /usr/local/Caskroom/gcc-arm-embedded/10-2020-q4-major/gcc-arm-none-eabi-10-2020-q4-major/bin/../lib/gcc/arm-none-eabi/10.2.1/../../../../arm-none-eabi/lib/thumb/v7-m/nofp/libg.a(lib_a-strlen-stub.o)
 .debug_frame   0x00000000000028e8       0x38 /usr/local/Caskroom/gcc-arm-embedded/10-2020-q4-major/gcc-arm-none-eabi-10-2020-q4-major/bin/../lib/gcc/arm-none-eabi/10.2.1/../../../../arm-none-eabi/lib/thumb/v7-m/nofp/libg.a(lib_a-strncmp.o)
 .debug_frame   0x0000000000002920       0x2c /usr/local/Caskroom/gcc-arm-embedded/10-2020-q4-major/gcc-arm-none-eabi-10-2020-q4-major/bin/../lib/gcc/arm-none-eabi/10.2.1/../../../../arm-none-eabi/lib/thumb/v7-m/nofp/libg.a(lib_a-strpbrk.o)
 .debug_frame   0x000000000000294c       0x28 /usr/local/Caskroom/gcc-arm-embedded/10-2020-q4-major/gcc-arm-none-eabi-10-2020-q4-major/bin/../lib/gcc/arm-none-eabi/10.2.1/../../../../arm-none-eabi/lib/thumb/v7-m/nofp/libg.a(lib_a-strspn.o)

Cross Reference Table

Symbol                                            File
BusFault_Handler                                  ./build/obj/vectors.o
DebugMon_Handler                                  ./build/obj/vectors.o
HardFault_Handler                                 ./build/obj/vectors.o
MemManage_Handler                                 ./build/obj/vectors.o
NMI_Handler                                       ./build/obj/vectors.o
PendSV_Handler                                    ./build/obj/vectors.o
Reset_Handler                                     ./build/obj/vectors.o
SDCD1                                             /var/folders/yg/3nxcpv294hvfwgl_w3cbnbrh0000gn/T//ch.elf.rjwPRd.ltrans0.ltrans.o
                                                  ./build/obj/hal_sdc_lld.o (symbol from plugin)
                                                  /var/folders/yg/3nxcpv294hvfwgl_w3cbnbrh0000gn/T//ch.elf.rjwPRd.ltrans1.ltrans.o
                                                  ./build/obj/main.o (symbol from plugin)
                                                  ./build/obj/fatfs_diskio.o (symbol from plugin)
SDU1                                              /var/folders/yg/3nxcpv294hvfwgl_w3cbnbrh0000gn/T//ch.elf.rjwPRd.ltrans0.ltrans.o
                                                  ./build/obj/usbcfg.o (symbol from plugin)
                                                  /var/folders/yg/3nxcpv294hvfwgl_w3cbnbrh0000gn/T//ch.elf.rjwPRd.ltrans1.ltrans.o
                                                  ./build/obj/main.o (symbol from plugin)
SVC_Handler                                       /var/folders/yg/3nxcpv294hvfwgl_w3cbnbrh0000gn/T//ch.elf.rjwPRd.ltrans0.ltrans.o
                                                  ./build/obj/chcore.o (symbol from plugin)
                                                  ./build/obj/vectors.o
SecureFault_Handler                               ./build/obj/vectors.o
SysTick_Handler                                   ./build/obj/vectors.o
SystemCoreClock                                   ./build/obj/hal_lld.o (symbol from plugin)
USBD1                                             /var/folders/yg/3nxcpv294hvfwgl_w3cbnbrh0000gn/T//ch.elf.rjwPRd.ltrans0.ltrans.o
                                                  ./build/obj/hal_usb_lld.o (symbol from plugin)
                                                  /var/folders/yg/3nxcpv294hvfwgl_w3cbnbrh0000gn/T//ch.elf.rjwPRd.ltrans1.ltrans.o
                                                  ./build/obj/usbcfg.o (symbol from plugin)
UsageFault_Handler                                ./build/obj/vectors.o
Vector100                                         ./build/obj/vectors.o
Vector104                                         /var/folders/yg/3nxcpv294hvfwgl_w3cbnbrh0000gn/T//ch.elf.rjwPRd.ltrans0.ltrans.o
                                                  ./build/obj/hal_sdc_lld.o (symbol from plugin)
                                                  ./build/obj/vectors.o
Vector108                                         ./build/obj/vectors.o
Vector10C                                         ./build/obj/vectors.o
Vector110                                         ./build/obj/vectors.o
Vector114                                         ./build/obj/vectors.o
Vector118                                         ./build/obj/vectors.o
Vector11C                                         ./build/obj/vectors.o
Vector120                                         /var/folders/yg/3nxcpv294hvfwgl_w3cbnbrh0000gn/T//ch.elf.rjwPRd.ltrans0.ltrans.o
                                                  ./build/obj/stm32_dma.o (symbol from plugin)
                                                  ./build/obj/vectors.o
Vector124                                         /var/folders/yg/3nxcpv294hvfwgl_w3cbnbrh0000gn/T//ch.elf.rjwPRd.ltrans0.ltrans.o
                                                  ./build/obj/stm32_dma.o (symbol from plugin)
                                                  ./build/obj/vectors.o
Vector128                                         /var/folders/yg/3nxcpv294hvfwgl_w3cbnbrh0000gn/T//ch.elf.rjwPRd.ltrans0.ltrans.o
                                                  ./build/obj/stm32_dma.o (symbol from plugin)
                                                  ./build/obj/vectors.o
Vector12C                                         /var/folders/yg/3nxcpv294hvfwgl_w3cbnbrh0000gn/T//ch.elf.rjwPRd.ltrans0.ltrans.o
                                                  ./build/obj/stm32_dma.o (symbol from plugin)
                                                  ./build/obj/vectors.o
Vector130                                         /var/folders/yg/3nxcpv294hvfwgl_w3cbnbrh0000gn/T//ch.elf.rjwPRd.ltrans0.ltrans.o
                                                  ./build/obj/stm32_dma.o (symbol from plugin)
                                                  ./build/obj/vectors.o
Vector134                                         ./build/obj/vectors.o
Vector138                                         ./build/obj/vectors.o
Vector13C                                         ./build/obj/vectors.o
Vector140                                         ./build/obj/vectors.o
Vector144                                         ./build/obj/vectors.o
Vector148                                         ./build/obj/vectors.o
Vector14C                                         ./build/obj/vectors.o
Vector150                                         ./build/obj/vectors.o
Vector154                                         ./build/obj/vectors.o
Vector158                                         ./build/obj/vectors.o
Vector15C                                         ./build/obj/vectors.o
Vector20                                          ./build/obj/vectors.o
Vector24                                          ./build/obj/vectors.o
Vector28                                          ./build/obj/vectors.o
Vector34                                          ./build/obj/vectors.o
Vector40                                          ./build/obj/vectors.o
Vector44                                          ./build/obj/vectors.o
Vector48                                          ./build/obj/vectors.o
Vector4C                                          ./build/obj/vectors.o
Vector50                                          ./build/obj/vectors.o
Vector54                                          ./build/obj/vectors.o
Vector58                                          ./build/obj/vectors.o
Vector5C                                          ./build/obj/vectors.o
Vector60                                          ./build/obj/vectors.o
Vector64                                          ./build/obj/vectors.o
Vector68                                          ./build/obj/vectors.o
Vector6C                                          /var/folders/yg/3nxcpv294hvfwgl_w3cbnbrh0000gn/T//ch.elf.rjwPRd.ltrans0.ltrans.o
                                                  ./build/obj/stm32_dma.o (symbol from plugin)
                                                  ./build/obj/vectors.o
Vector70                                          /var/folders/yg/3nxcpv294hvfwgl_w3cbnbrh0000gn/T//ch.elf.rjwPRd.ltrans0.ltrans.o
                                                  ./build/obj/stm32_dma.o (symbol from plugin)
                                                  ./build/obj/vectors.o
Vector74                                          /var/folders/yg/3nxcpv294hvfwgl_w3cbnbrh0000gn/T//ch.elf.rjwPRd.ltrans0.ltrans.o
                                                  ./build/obj/stm32_dma.o (symbol from plugin)
                                                  ./build/obj/vectors.o
Vector78                                          /var/folders/yg/3nxcpv294hvfwgl_w3cbnbrh0000gn/T//ch.elf.rjwPRd.ltrans0.ltrans.o
                                                  ./build/obj/stm32_dma.o (symbol from plugin)
                                                  ./build/obj/vectors.o
Vector7C                                          /var/folders/yg/3nxcpv294hvfwgl_w3cbnbrh0000gn/T//ch.elf.rjwPRd.ltrans0.ltrans.o
                                                  ./build/obj/stm32_dma.o (symbol from plugin)
                                                  ./build/obj/vectors.o
Vector80                                          /var/folders/yg/3nxcpv294hvfwgl_w3cbnbrh0000gn/T//ch.elf.rjwPRd.ltrans0.ltrans.o
                                                  ./build/obj/stm32_dma.o (symbol from plugin)
                                                  ./build/obj/vectors.o
Vector84                                          /var/folders/yg/3nxcpv294hvfwgl_w3cbnbrh0000gn/T//ch.elf.rjwPRd.ltrans0.ltrans.o
                                                  ./build/obj/stm32_dma.o (symbol from plugin)
                                                  ./build/obj/vectors.o
Vector88                                          ./build/obj/vectors.o
Vector8C                                          ./build/obj/vectors.o
Vector90                                          /var/folders/yg/3nxcpv294hvfwgl_w3cbnbrh0000gn/T//ch.elf.rjwPRd.ltrans0.ltrans.o
                                                  ./build/obj/hal_usb_lld.o (symbol from plugin)
                                                  ./build/obj/vectors.o
Vector94                                          ./build/obj/vectors.o
Vector98                                          ./build/obj/vectors.o
Vector9C                                          ./build/obj/vectors.o
VectorA0                                          ./build/obj/vectors.o
VectorA4                                          ./build/obj/vectors.o
VectorA8                                          ./build/obj/vectors.o
VectorAC                                          ./build/obj/vectors.o
VectorB0                                          /var/folders/yg/3nxcpv294hvfwgl_w3cbnbrh0000gn/T//ch.elf.rjwPRd.ltrans0.ltrans.o
                                                  ./build/obj/hal_st_lld.o (symbol from plugin)
                                                  ./build/obj/vectors.o
VectorB4                                          ./build/obj/vectors.o
VectorB8                                          ./build/obj/vectors.o
VectorBC                                          ./build/obj/vectors.o
VectorC0                                          ./build/obj/vectors.o
VectorC4                                          ./build/obj/vectors.o
VectorC8                                          ./build/obj/vectors.o
VectorCC                                          ./build/obj/vectors.o
VectorD0                                          ./build/obj/vectors.o
VectorD4                                          ./build/obj/vectors.o
VectorD8                                          ./build/obj/vectors.o
VectorDC                                          ./build/obj/vectors.o
VectorE0                                          ./build/obj/vectors.o
VectorE4                                          ./build/obj/vectors.o
VectorE8                                          ./build/obj/vectors.o
VectorEC                                          ./build/obj/vectors.o
VectorF0                                          ./build/obj/vectors.o
VectorF4                                          ./build/obj/vectors.o
VectorF8                                          ./build/obj/vectors.o
VectorFC                                          ./build/obj/vectors.o
__bss_base__                                      /var/folders/yg/3nxcpv294hvfwgl_w3cbnbrh0000gn/T//ch.elf.rjwPRd.ltrans1.ltrans.o
                                                  ./build/obj/ch_test.o (symbol from plugin)
                                                  ./build/obj/crt0_v7m.o
__bss_end__                                       /var/folders/yg/3nxcpv294hvfwgl_w3cbnbrh0000gn/T//ch.elf.rjwPRd.ltrans1.ltrans.o
                                                  ./build/obj/ch_test.o (symbol from plugin)
                                                  ./build/obj/crt0_v7m.o
__ch_delegate_fn0                                 /var/folders/yg/3nxcpv294hvfwgl_w3cbnbrh0000gn/T//ch.elf.rjwPRd.ltrans0.ltrans.o
                                                  ./build/obj/chdelegates.o (symbol from plugin)
                                                  /var/folders/yg/3nxcpv294hvfwgl_w3cbnbrh0000gn/T//ch.elf.rjwPRd.ltrans1.ltrans.o
                                                  ./build/obj/oslib_test_sequence_005.o (symbol from plugin)
__ch_delegate_fn1                                 /var/folders/yg/3nxcpv294hvfwgl_w3cbnbrh0000gn/T//ch.elf.rjwPRd.ltrans0.ltrans.o
                                                  ./build/obj/chdelegates.o (symbol from plugin)
                                                  /var/folders/yg/3nxcpv294hvfwgl_w3cbnbrh0000gn/T//ch.elf.rjwPRd.ltrans1.ltrans.o
                                                  ./build/obj/oslib_test_sequence_005.o (symbol from plugin)
__ch_delegate_fn2                                 /var/folders/yg/3nxcpv294hvfwgl_w3cbnbrh0000gn/T//ch.elf.rjwPRd.ltrans0.ltrans.o
                                                  ./build/obj/chdelegates.o (symbol from plugin)
                                                  /var/folders/yg/3nxcpv294hvfwgl_w3cbnbrh0000gn/T//ch.elf.rjwPRd.ltrans1.ltrans.o
                                                  ./build/obj/oslib_test_sequence_005.o (symbol from plugin)
__ch_delegate_fn3                                 /var/folders/yg/3nxcpv294hvfwgl_w3cbnbrh0000gn/T//ch.elf.rjwPRd.ltrans0.ltrans.o
                                                  ./build/obj/chdelegates.o (symbol from plugin)
                                                  /var/folders/yg/3nxcpv294hvfwgl_w3cbnbrh0000gn/T//ch.elf.rjwPRd.ltrans1.ltrans.o
                                                  ./build/obj/oslib_test_sequence_005.o (symbol from plugin)
__ch_delegate_fn4                                 /var/folders/yg/3nxcpv294hvfwgl_w3cbnbrh0000gn/T//ch.elf.rjwPRd.ltrans0.ltrans.o
                                                  ./build/obj/chdelegates.o (symbol from plugin)
                                                  /var/folders/yg/3nxcpv294hvfwgl_w3cbnbrh0000gn/T//ch.elf.rjwPRd.ltrans1.ltrans.o
                                                  ./build/obj/oslib_test_sequence_005.o (symbol from plugin)
__core_init                                       ./build/obj/chmemcore.o (symbol from plugin)
                                                  ./build/obj/chsys.o (symbol from plugin)
__cpu_init                                        /var/folders/yg/3nxcpv294hvfwgl_w3cbnbrh0000gn/T//ch.elf.rjwPRd.ltrans0.ltrans.o
                                                  ./build/obj/crt1.o (symbol from plugin)
                                                  ./build/obj/crt0_v7m.o
__data_base__                                     /var/folders/yg/3nxcpv294hvfwgl_w3cbnbrh0000gn/T//ch.elf.rjwPRd.ltrans1.ltrans.o
                                                  ./build/obj/ch_test.o (symbol from plugin)
                                                  ./build/obj/crt0_v7m.o
__data_end__                                      /var/folders/yg/3nxcpv294hvfwgl_w3cbnbrh0000gn/T//ch.elf.rjwPRd.ltrans1.ltrans.o
                                                  ./build/obj/ch_test.o (symbol from plugin)
                                                  ./build/obj/crt0_v7m.o
__default_exit                                    /var/folders/yg/3nxcpv294hvfwgl_w3cbnbrh0000gn/T//ch.elf.rjwPRd.ltrans0.ltrans.o
                                                  ./build/obj/crt1.o (symbol from plugin)
                                                  ./build/obj/crt0_v7m.o
__early_init                                      /var/folders/yg/3nxcpv294hvfwgl_w3cbnbrh0000gn/T//ch.elf.rjwPRd.ltrans0.ltrans.o
                                                  ./build/obj/board.o (symbol from plugin)
                                                  ./build/obj/crt1.o (symbol from plugin)
                                                  ./build/obj/crt0_v7m.o
__factory_init                                    ./build/obj/chfactory.o (symbol from plugin)
                                                  ./build/obj/chsys.o (symbol from plugin)
__fini_array_base__                               ./build/obj/crt0_v7m.o
__fini_array_end__                                ./build/obj/crt0_v7m.o
__heap_base__                                     /var/folders/yg/3nxcpv294hvfwgl_w3cbnbrh0000gn/T//ch.elf.rjwPRd.ltrans1.ltrans.o
                                                  ./build/obj/chmemcore.o (symbol from plugin)
__heap_end__                                      /var/folders/yg/3nxcpv294hvfwgl_w3cbnbrh0000gn/T//ch.elf.rjwPRd.ltrans1.ltrans.o
                                                  ./build/obj/chmemcore.o (symbol from plugin)
__heap_init                                       ./build/obj/chmemheaps.o (symbol from plugin)
                                                  ./build/obj/chsys.o (symbol from plugin)
__idle_thread.lto_priv.0                          /var/folders/yg/3nxcpv294hvfwgl_w3cbnbrh0000gn/T//ch.elf.rjwPRd.ltrans0.ltrans.o
                                                  /var/folders/yg/3nxcpv294hvfwgl_w3cbnbrh0000gn/T//ch.elf.rjwPRd.ltrans1.ltrans.o
__init_array_base__                               ./build/obj/crt0_v7m.o
__init_array_end__                                ./build/obj/crt0_v7m.o
__init_ram_areas                                  /var/folders/yg/3nxcpv294hvfwgl_w3cbnbrh0000gn/T//ch.elf.rjwPRd.ltrans0.ltrans.o
                                                  ./build/obj/crt1.o (symbol from plugin)
                                                  ./build/obj/crt0_v7m.o
__late_init                                       /var/folders/yg/3nxcpv294hvfwgl_w3cbnbrh0000gn/T//ch.elf.rjwPRd.ltrans0.ltrans.o
                                                  ./build/obj/crt1.o (symbol from plugin)
                                                  ./build/obj/crt0_v7m.o
__main_stack_base__                               ./build/obj/crt0_v7m.o
__main_stack_end__                                ./build/obj/vectors.o
                                                  ./build/obj/crt0_v7m.o
__port_exit_from_isr                              ./build/obj/chcoreasm.o
                                                  /var/folders/yg/3nxcpv294hvfwgl_w3cbnbrh0000gn/T//ch.elf.rjwPRd.ltrans0.ltrans.o
                                                  ./build/obj/chcore.o (symbol from plugin)
__port_irq_epilogue                               ./build/obj/chcore.o (symbol from plugin)
                                                  ./build/obj/hal_usb_lld.o (symbol from plugin)
                                                  ./build/obj/hal_st_lld.o (symbol from plugin)
                                                  ./build/obj/hal_sdc_lld.o (symbol from plugin)
                                                  ./build/obj/stm32_dma.o (symbol from plugin)
__port_switch                                     ./build/obj/chcoreasm.o
                                                  /var/folders/yg/3nxcpv294hvfwgl_w3cbnbrh0000gn/T//ch.elf.rjwPRd.ltrans1.ltrans.o
                                                  /var/folders/yg/3nxcpv294hvfwgl_w3cbnbrh0000gn/T//ch.elf.rjwPRd.ltrans0.ltrans.o
                                                  ./build/obj/chschd.o (symbol from plugin)
__port_switch_from_isr                            ./build/obj/chcoreasm.o
                                                  /var/folders/yg/3nxcpv294hvfwgl_w3cbnbrh0000gn/T//ch.elf.rjwPRd.ltrans0.ltrans.o
                                                  ./build/obj/chcore.o (symbol from plugin)
__port_thread_start                               ./build/obj/chcoreasm.o
                                                  /var/folders/yg/3nxcpv294hvfwgl_w3cbnbrh0000gn/T//ch.elf.rjwPRd.ltrans1.ltrans.o
                                                  /var/folders/yg/3nxcpv294hvfwgl_w3cbnbrh0000gn/T//ch.elf.rjwPRd.ltrans0.ltrans.o
                                                  ./build/obj/chthreads.o (symbol from plugin)
__process_stack_base__                            ./build/obj/crt0_v7m.o
__process_stack_end__                             ./build/obj/crt0_v7m.o
__ram0_clear__                                    /var/folders/yg/3nxcpv294hvfwgl_w3cbnbrh0000gn/T//ch.elf.rjwPRd.ltrans0.ltrans.o
                                                  ./build/obj/crt1.o (symbol from plugin)
__ram0_init__                                     /var/folders/yg/3nxcpv294hvfwgl_w3cbnbrh0000gn/T//ch.elf.rjwPRd.ltrans0.ltrans.o
                                                  ./build/obj/crt1.o (symbol from plugin)
__ram0_init_text__                                /var/folders/yg/3nxcpv294hvfwgl_w3cbnbrh0000gn/T//ch.elf.rjwPRd.ltrans0.ltrans.o
                                                  ./build/obj/crt1.o (symbol from plugin)
__ram0_noinit__                                   /var/folders/yg/3nxcpv294hvfwgl_w3cbnbrh0000gn/T//ch.elf.rjwPRd.ltrans0.ltrans.o
                                                  ./build/obj/crt1.o (symbol from plugin)
__ram1_clear__                                    /var/folders/yg/3nxcpv294hvfwgl_w3cbnbrh0000gn/T//ch.elf.rjwPRd.ltrans0.ltrans.o
                                                  ./build/obj/crt1.o (symbol from plugin)
__ram1_init__                                     /var/folders/yg/3nxcpv294hvfwgl_w3cbnbrh0000gn/T//ch.elf.rjwPRd.ltrans0.ltrans.o
                                                  ./build/obj/crt1.o (symbol from plugin)
__ram1_init_text__                                /var/folders/yg/3nxcpv294hvfwgl_w3cbnbrh0000gn/T//ch.elf.rjwPRd.ltrans0.ltrans.o
                                                  ./build/obj/crt1.o (symbol from plugin)
__ram1_noinit__                                   /var/folders/yg/3nxcpv294hvfwgl_w3cbnbrh0000gn/T//ch.elf.rjwPRd.ltrans0.ltrans.o
                                                  ./build/obj/crt1.o (symbol from plugin)
__ram2_clear__                                    /var/folders/yg/3nxcpv294hvfwgl_w3cbnbrh0000gn/T//ch.elf.rjwPRd.ltrans0.ltrans.o
                                                  ./build/obj/crt1.o (symbol from plugin)
__ram2_init__                                     /var/folders/yg/3nxcpv294hvfwgl_w3cbnbrh0000gn/T//ch.elf.rjwPRd.ltrans0.ltrans.o
                                                  ./build/obj/crt1.o (symbol from plugin)
__ram2_init_text__                                /var/folders/yg/3nxcpv294hvfwgl_w3cbnbrh0000gn/T//ch.elf.rjwPRd.ltrans0.ltrans.o
                                                  ./build/obj/crt1.o (symbol from plugin)
__ram2_noinit__                                   /var/folders/yg/3nxcpv294hvfwgl_w3cbnbrh0000gn/T//ch.elf.rjwPRd.ltrans0.ltrans.o
                                                  ./build/obj/crt1.o (symbol from plugin)
__ram3_clear__                                    /var/folders/yg/3nxcpv294hvfwgl_w3cbnbrh0000gn/T//ch.elf.rjwPRd.ltrans0.ltrans.o
                                                  ./build/obj/crt1.o (symbol from plugin)
__ram3_init__                                     /var/folders/yg/3nxcpv294hvfwgl_w3cbnbrh0000gn/T//ch.elf.rjwPRd.ltrans0.ltrans.o
                                                  ./build/obj/crt1.o (symbol from plugin)
__ram3_init_text__                                /var/folders/yg/3nxcpv294hvfwgl_w3cbnbrh0000gn/T//ch.elf.rjwPRd.ltrans0.ltrans.o
                                                  ./build/obj/crt1.o (symbol from plugin)
__ram3_noinit__                                   /var/folders/yg/3nxcpv294hvfwgl_w3cbnbrh0000gn/T//ch.elf.rjwPRd.ltrans0.ltrans.o
                                                  ./build/obj/crt1.o (symbol from plugin)
__ram4_clear__                                    /var/folders/yg/3nxcpv294hvfwgl_w3cbnbrh0000gn/T//ch.elf.rjwPRd.ltrans0.ltrans.o
                                                  ./build/obj/crt1.o (symbol from plugin)
__ram4_init__                                     /var/folders/yg/3nxcpv294hvfwgl_w3cbnbrh0000gn/T//ch.elf.rjwPRd.ltrans0.ltrans.o
                                                  ./build/obj/crt1.o (symbol from plugin)
__ram4_init_text__                                /var/folders/yg/3nxcpv294hvfwgl_w3cbnbrh0000gn/T//ch.elf.rjwPRd.ltrans0.ltrans.o
                                                  ./build/obj/crt1.o (symbol from plugin)
__ram4_noinit__                                   /var/folders/yg/3nxcpv294hvfwgl_w3cbnbrh0000gn/T//ch.elf.rjwPRd.ltrans0.ltrans.o
                                                  ./build/obj/crt1.o (symbol from plugin)
__ram5_clear__                                    /var/folders/yg/3nxcpv294hvfwgl_w3cbnbrh0000gn/T//ch.elf.rjwPRd.ltrans0.ltrans.o
                                                  ./build/obj/crt1.o (symbol from plugin)
__ram5_init__                                     /var/folders/yg/3nxcpv294hvfwgl_w3cbnbrh0000gn/T//ch.elf.rjwPRd.ltrans0.ltrans.o
                                                  ./build/obj/crt1.o (symbol from plugin)
__ram5_init_text__                                /var/folders/yg/3nxcpv294hvfwgl_w3cbnbrh0000gn/T//ch.elf.rjwPRd.ltrans0.ltrans.o
                                                  ./build/obj/crt1.o (symbol from plugin)
__ram5_noinit__                                   /var/folders/yg/3nxcpv294hvfwgl_w3cbnbrh0000gn/T//ch.elf.rjwPRd.ltrans0.ltrans.o
                                                  ./build/obj/crt1.o (symbol from plugin)
__ram6_clear__                                    /var/folders/yg/3nxcpv294hvfwgl_w3cbnbrh0000gn/T//ch.elf.rjwPRd.ltrans0.ltrans.o
                                                  ./build/obj/crt1.o (symbol from plugin)
__ram6_init__                                     /var/folders/yg/3nxcpv294hvfwgl_w3cbnbrh0000gn/T//ch.elf.rjwPRd.ltrans0.ltrans.o
                                                  ./build/obj/crt1.o (symbol from plugin)
__ram6_init_text__                                /var/folders/yg/3nxcpv294hvfwgl_w3cbnbrh0000gn/T//ch.elf.rjwPRd.ltrans0.ltrans.o
                                                  ./build/obj/crt1.o (symbol from plugin)
__ram6_noinit__                                   /var/folders/yg/3nxcpv294hvfwgl_w3cbnbrh0000gn/T//ch.elf.rjwPRd.ltrans0.ltrans.o
                                                  ./build/obj/crt1.o (symbol from plugin)
__ram7_clear__                                    /var/folders/yg/3nxcpv294hvfwgl_w3cbnbrh0000gn/T//ch.elf.rjwPRd.ltrans0.ltrans.o
                                                  ./build/obj/crt1.o (symbol from plugin)
__ram7_init__                                     /var/folders/yg/3nxcpv294hvfwgl_w3cbnbrh0000gn/T//ch.elf.rjwPRd.ltrans0.ltrans.o
                                                  ./build/obj/crt1.o (symbol from plugin)
__ram7_init_text__                                /var/folders/yg/3nxcpv294hvfwgl_w3cbnbrh0000gn/T//ch.elf.rjwPRd.ltrans0.ltrans.o
                                                  ./build/obj/crt1.o (symbol from plugin)
__ram7_noinit__                                   /var/folders/yg/3nxcpv294hvfwgl_w3cbnbrh0000gn/T//ch.elf.rjwPRd.ltrans0.ltrans.o
                                                  ./build/obj/crt1.o (symbol from plugin)
__rodata_base__                                   /var/folders/yg/3nxcpv294hvfwgl_w3cbnbrh0000gn/T//ch.elf.rjwPRd.ltrans1.ltrans.o
                                                  ./build/obj/ch_test.o (symbol from plugin)
__rodata_end__                                    /var/folders/yg/3nxcpv294hvfwgl_w3cbnbrh0000gn/T//ch.elf.rjwPRd.ltrans1.ltrans.o
                                                  ./build/obj/ch_test.o (symbol from plugin)
__sch_reschedule_ahead.lto_priv.0                 /var/folders/yg/3nxcpv294hvfwgl_w3cbnbrh0000gn/T//ch.elf.rjwPRd.ltrans0.ltrans.o
                                                  /var/folders/yg/3nxcpv294hvfwgl_w3cbnbrh0000gn/T//ch.elf.rjwPRd.ltrans1.ltrans.o
__sch_wakeup.lto_priv.0                           /var/folders/yg/3nxcpv294hvfwgl_w3cbnbrh0000gn/T//ch.elf.rjwPRd.ltrans0.ltrans.o
                                                  /var/folders/yg/3nxcpv294hvfwgl_w3cbnbrh0000gn/T//ch.elf.rjwPRd.ltrans1.ltrans.o
__test_assert                                     /var/folders/yg/3nxcpv294hvfwgl_w3cbnbrh0000gn/T//ch.elf.rjwPRd.ltrans0.ltrans.o
                                                  ./build/obj/ch_test.o (symbol from plugin)
                                                  /var/folders/yg/3nxcpv294hvfwgl_w3cbnbrh0000gn/T//ch.elf.rjwPRd.ltrans1.ltrans.o
                                                  ./build/obj/oslib_test_sequence_009.o (symbol from plugin)
                                                  ./build/obj/oslib_test_sequence_008.o (symbol from plugin)
                                                  ./build/obj/oslib_test_sequence_007.o (symbol from plugin)
                                                  ./build/obj/oslib_test_sequence_006.o (symbol from plugin)
                                                  ./build/obj/oslib_test_sequence_005.o (symbol from plugin)
                                                  ./build/obj/oslib_test_sequence_003.o (symbol from plugin)
                                                  ./build/obj/oslib_test_sequence_002.o (symbol from plugin)
                                                  ./build/obj/rt_test_sequence_011.o (symbol from plugin)
                                                  ./build/obj/rt_test_sequence_010.o (symbol from plugin)
                                                  ./build/obj/rt_test_sequence_008.o (symbol from plugin)
                                                  ./build/obj/rt_test_sequence_007.o (symbol from plugin)
                                                  ./build/obj/rt_test_sequence_006.o (symbol from plugin)
                                                  ./build/obj/rt_test_sequence_005.o (symbol from plugin)
                                                  ./build/obj/rt_test_sequence_004.o (symbol from plugin)
                                                  ./build/obj/rt_test_sequence_003.o (symbol from plugin)
                                                  ./build/obj/rt_test_sequence_002.o (symbol from plugin)
__test_assert_sequence                            /var/folders/yg/3nxcpv294hvfwgl_w3cbnbrh0000gn/T//ch.elf.rjwPRd.ltrans0.ltrans.o
                                                  ./build/obj/ch_test.o (symbol from plugin)
                                                  /var/folders/yg/3nxcpv294hvfwgl_w3cbnbrh0000gn/T//ch.elf.rjwPRd.ltrans1.ltrans.o
                                                  ./build/obj/oslib_test_sequence_006.o (symbol from plugin)
                                                  ./build/obj/oslib_test_sequence_005.o (symbol from plugin)
                                                  ./build/obj/oslib_test_sequence_004.o (symbol from plugin)
                                                  ./build/obj/oslib_test_sequence_002.o (symbol from plugin)
                                                  ./build/obj/rt_test_sequence_011.o (symbol from plugin)
                                                  ./build/obj/rt_test_sequence_010.o (symbol from plugin)
                                                  ./build/obj/rt_test_sequence_009.o (symbol from plugin)
                                                  ./build/obj/rt_test_sequence_008.o (symbol from plugin)
                                                  ./build/obj/rt_test_sequence_007.o (symbol from plugin)
                                                  ./build/obj/rt_test_sequence_005.o (symbol from plugin)
__test_assert_time_window                         ./build/obj/ch_test.o (symbol from plugin)
                                                  ./build/obj/rt_test_sequence_010.o (symbol from plugin)
                                                  ./build/obj/rt_test_sequence_007.o (symbol from plugin)
                                                  ./build/obj/rt_test_sequence_006.o (symbol from plugin)
                                                  ./build/obj/rt_test_sequence_005.o (symbol from plugin)
__test_fail                                       ./build/obj/ch_test.o (symbol from plugin)
__text_base__                                     /var/folders/yg/3nxcpv294hvfwgl_w3cbnbrh0000gn/T//ch.elf.rjwPRd.ltrans1.ltrans.o
                                                  ./build/obj/ch_test.o (symbol from plugin)
__text_end__                                      /var/folders/yg/3nxcpv294hvfwgl_w3cbnbrh0000gn/T//ch.elf.rjwPRd.ltrans1.ltrans.o
                                                  ./build/obj/ch_test.o (symbol from plugin)
__textdata_base__                                 ./build/obj/crt0_v7m.o
__thd_object_init                                 ./build/obj/chthreads.o (symbol from plugin)
                                                  ./build/obj/chinstances.o (symbol from plugin)
_crt0_entry                                       ./build/obj/crt0_v7m.o
                                                  ./build/obj/vectors.o
_ctl.lto_priv.0                                   /var/folders/yg/3nxcpv294hvfwgl_w3cbnbrh0000gn/T//ch.elf.rjwPRd.ltrans0.ltrans.o
                                                  /var/folders/yg/3nxcpv294hvfwgl_w3cbnbrh0000gn/T//ch.elf.rjwPRd.ltrans1.ltrans.o
_ctype_                                           /usr/local/Caskroom/gcc-arm-embedded/10-2020-q4-major/gcc-arm-none-eabi-10-2020-q4-major/bin/../lib/gcc/arm-none-eabi/10.2.1/../../../../arm-none-eabi/lib/thumb/v7-m/nofp/libg.a(lib_a-ctype_.o)
                                                  ./build/obj/chscanf.o (symbol from plugin)
_get.lto_priv.0                                   /var/folders/yg/3nxcpv294hvfwgl_w3cbnbrh0000gn/T//ch.elf.rjwPRd.ltrans0.ltrans.o
                                                  /var/folders/yg/3nxcpv294hvfwgl_w3cbnbrh0000gn/T//ch.elf.rjwPRd.ltrans1.ltrans.o
_gett.lto_priv.0                                  /var/folders/yg/3nxcpv294hvfwgl_w3cbnbrh0000gn/T//ch.elf.rjwPRd.ltrans0.ltrans.o
                                                  /var/folders/yg/3nxcpv294hvfwgl_w3cbnbrh0000gn/T//ch.elf.rjwPRd.ltrans1.ltrans.o
_mmcsd_get_capacity                               ./build/obj/hal_mmcsd.o (symbol from plugin)
                                                  ./build/obj/hal_sdc.o (symbol from plugin)
_mmcsd_get_capacity_ext                           ./build/obj/hal_mmcsd.o (symbol from plugin)
                                                  ./build/obj/hal_sdc.o (symbol from plugin)
_mmcsd_get_slice                                  ./build/obj/hal_mmcsd.o (symbol from plugin)
                                                  ./build/obj/hal_sdc.o (symbol from plugin)
_mmcsd_unpack_csd_mmc                             ./build/obj/hal_mmcsd.o (symbol from plugin)
_mmcsd_unpack_csd_v10                             ./build/obj/hal_mmcsd.o (symbol from plugin)
_mmcsd_unpack_csd_v20                             ./build/obj/hal_mmcsd.o (symbol from plugin)
_mmcsd_unpack_mmc_cid                             ./build/obj/hal_mmcsd.o (symbol from plugin)
_mmcsd_unpack_sdc_cid                             ./build/obj/hal_mmcsd.o (symbol from plugin)
_pal_lld_init                                     ./build/obj/hal_pal_lld.o (symbol from plugin)
                                                  ./build/obj/hal.o (symbol from plugin)
_pal_lld_setgroupmode                             ./build/obj/hal_pal_lld.o (symbol from plugin)
                                                  ./build/obj/hal_pal.o (symbol from plugin)
_put.lto_priv.0                                   /var/folders/yg/3nxcpv294hvfwgl_w3cbnbrh0000gn/T//ch.elf.rjwPRd.ltrans0.ltrans.o
                                                  /var/folders/yg/3nxcpv294hvfwgl_w3cbnbrh0000gn/T//ch.elf.rjwPRd.ltrans1.ltrans.o
_putt.lto_priv.0                                  /var/folders/yg/3nxcpv294hvfwgl_w3cbnbrh0000gn/T//ch.elf.rjwPRd.ltrans0.ltrans.o
                                                  /var/folders/yg/3nxcpv294hvfwgl_w3cbnbrh0000gn/T//ch.elf.rjwPRd.ltrans1.ltrans.o
_read.lto_priv.0                                  /var/folders/yg/3nxcpv294hvfwgl_w3cbnbrh0000gn/T//ch.elf.rjwPRd.ltrans0.ltrans.o
                                                  /var/folders/yg/3nxcpv294hvfwgl_w3cbnbrh0000gn/T//ch.elf.rjwPRd.ltrans1.ltrans.o
_readt.lto_priv.0                                 /var/folders/yg/3nxcpv294hvfwgl_w3cbnbrh0000gn/T//ch.elf.rjwPRd.ltrans0.ltrans.o
                                                  /var/folders/yg/3nxcpv294hvfwgl_w3cbnbrh0000gn/T//ch.elf.rjwPRd.ltrans1.ltrans.o
_sdc_wait_for_transfer_state                      /var/folders/yg/3nxcpv294hvfwgl_w3cbnbrh0000gn/T//ch.elf.rjwPRd.ltrans0.ltrans.o
                                                  ./build/obj/hal_sdc.o (symbol from plugin)
                                                  /var/folders/yg/3nxcpv294hvfwgl_w3cbnbrh0000gn/T//ch.elf.rjwPRd.ltrans1.ltrans.o
                                                  ./build/obj/hal_sdc_lld.o (symbol from plugin)
_stm32_dma_streams                                /var/folders/yg/3nxcpv294hvfwgl_w3cbnbrh0000gn/T//ch.elf.rjwPRd.ltrans0.ltrans.o
                                                  ./build/obj/stm32_dma.o (symbol from plugin)
                                                  /var/folders/yg/3nxcpv294hvfwgl_w3cbnbrh0000gn/T//ch.elf.rjwPRd.ltrans1.ltrans.o
_unhandled_exception                              ./build/obj/vectors.o
_usb_ep0in                                        /var/folders/yg/3nxcpv294hvfwgl_w3cbnbrh0000gn/T//ch.elf.rjwPRd.ltrans0.ltrans.o
                                                  ./build/obj/hal_usb.o (symbol from plugin)
                                                  ./build/obj/hal_usb_lld.o (symbol from plugin)
_usb_ep0out                                       /var/folders/yg/3nxcpv294hvfwgl_w3cbnbrh0000gn/T//ch.elf.rjwPRd.ltrans0.ltrans.o
                                                  ./build/obj/hal_usb.o (symbol from plugin)
                                                  ./build/obj/hal_usb_lld.o (symbol from plugin)
_usb_ep0setup                                     /var/folders/yg/3nxcpv294hvfwgl_w3cbnbrh0000gn/T//ch.elf.rjwPRd.ltrans0.ltrans.o
                                                  ./build/obj/hal_usb.o (symbol from plugin)
                                                  ./build/obj/hal_usb_lld.o (symbol from plugin)
_usb_reset                                        ./build/obj/hal_usb.o (symbol from plugin)
                                                  ./build/obj/hal_usb_lld.o (symbol from plugin)
_usb_suspend                                      ./build/obj/hal_usb.o (symbol from plugin)
                                                  ./build/obj/hal_usb_lld.o (symbol from plugin)
_usb_wakeup                                       ./build/obj/hal_usb.o (symbol from plugin)
                                                  ./build/obj/hal_usb_lld.o (symbol from plugin)
_vectors                                          ./build/obj/vectors.o
                                                  ./build/obj/crt0_v7m.o
_write.lto_priv.0                                 /var/folders/yg/3nxcpv294hvfwgl_w3cbnbrh0000gn/T//ch.elf.rjwPRd.ltrans0.ltrans.o
                                                  /var/folders/yg/3nxcpv294hvfwgl_w3cbnbrh0000gn/T//ch.elf.rjwPRd.ltrans1.ltrans.o
_writet.lto_priv.0                                /var/folders/yg/3nxcpv294hvfwgl_w3cbnbrh0000gn/T//ch.elf.rjwPRd.ltrans0.ltrans.o
                                                  /var/folders/yg/3nxcpv294hvfwgl_w3cbnbrh0000gn/T//ch.elf.rjwPRd.ltrans1.ltrans.o
bmk_thread3.lto_priv.0                            /var/folders/yg/3nxcpv294hvfwgl_w3cbnbrh0000gn/T//ch.elf.rjwPRd.ltrans0.ltrans.o
                                                  /var/folders/yg/3nxcpv294hvfwgl_w3cbnbrh0000gn/T//ch.elf.rjwPRd.ltrans1.ltrans.o
bmk_thread4.lto_priv.0                            /var/folders/yg/3nxcpv294hvfwgl_w3cbnbrh0000gn/T//ch.elf.rjwPRd.ltrans0.ltrans.o
                                                  /var/folders/yg/3nxcpv294hvfwgl_w3cbnbrh0000gn/T//ch.elf.rjwPRd.ltrans1.ltrans.o
bmk_thread7.lto_priv.0                            /var/folders/yg/3nxcpv294hvfwgl_w3cbnbrh0000gn/T//ch.elf.rjwPRd.ltrans0.ltrans.o
                                                  /var/folders/yg/3nxcpv294hvfwgl_w3cbnbrh0000gn/T//ch.elf.rjwPRd.ltrans1.ltrans.o
bmk_thread8.lto_priv.0                            /var/folders/yg/3nxcpv294hvfwgl_w3cbnbrh0000gn/T//ch.elf.rjwPRd.ltrans0.ltrans.o
                                                  /var/folders/yg/3nxcpv294hvfwgl_w3cbnbrh0000gn/T//ch.elf.rjwPRd.ltrans1.ltrans.o
board.c.7960b774                                  /var/folders/yg/3nxcpv294hvfwgl_w3cbnbrh0000gn/T//cc3QhnFJ.debug.temp.o
                                                  /var/folders/yg/3nxcpv294hvfwgl_w3cbnbrh0000gn/T//ch.elf.rjwPRd.ltrans1.ltrans.o
                                                  /var/folders/yg/3nxcpv294hvfwgl_w3cbnbrh0000gn/T//ch.elf.rjwPRd.ltrans0.ltrans.o
boardInit                                         ./build/obj/board.o (symbol from plugin)
                                                  ./build/obj/hal.o (symbol from plugin)
bsaObjectInit                                     ./build/obj/bufstreams.o (symbol from plugin)
bufstreams.c.b0301d40                             /var/folders/yg/3nxcpv294hvfwgl_w3cbnbrh0000gn/T//cc7gTef4.debug.temp.o
ch0                                               /var/folders/yg/3nxcpv294hvfwgl_w3cbnbrh0000gn/T//ch.elf.rjwPRd.ltrans0.ltrans.o
                                                  ./build/obj/chsys.o (symbol from plugin)
                                                  /var/folders/yg/3nxcpv294hvfwgl_w3cbnbrh0000gn/T//ch.elf.rjwPRd.ltrans1.ltrans.o
                                                  ./build/obj/main.o (symbol from plugin)
                                                  ./build/obj/oslib_test_sequence_005.o (symbol from plugin)
                                                  ./build/obj/oslib_test_sequence_004.o (symbol from plugin)
                                                  ./build/obj/rt_test_sequence_012.o (symbol from plugin)
                                                  ./build/obj/rt_test_sequence_011.o (symbol from plugin)
                                                  ./build/obj/rt_test_sequence_010.o (symbol from plugin)
                                                  ./build/obj/rt_test_sequence_009.o (symbol from plugin)
                                                  ./build/obj/rt_test_sequence_008.o (symbol from plugin)
                                                  ./build/obj/rt_test_sequence_007.o (symbol from plugin)
                                                  ./build/obj/rt_test_sequence_006.o (symbol from plugin)
                                                  ./build/obj/rt_test_sequence_005.o (symbol from plugin)
                                                  ./build/obj/shell_cmd.o (symbol from plugin)
                                                  ./build/obj/shell.o (symbol from plugin)
                                                  ./build/obj/chmsg.o (symbol from plugin)
                                                  ./build/obj/chevents.o (symbol from plugin)
                                                  ./build/obj/chcond.o (symbol from plugin)
                                                  ./build/obj/chmtx.o (symbol from plugin)
                                                  ./build/obj/chsem.o (symbol from plugin)
                                                  ./build/obj/chregistry.o (symbol from plugin)
                                                  ./build/obj/chthreads.o (symbol from plugin)
                                                  ./build/obj/chschd.o (symbol from plugin)
                                                  ./build/obj/chvt.o (symbol from plugin)
                                                  ./build/obj/chrfcu.o (symbol from plugin)
chCacheGetObject                                  ./build/obj/chobjcaches.o (symbol from plugin)
                                                  ./build/obj/oslib_test_sequence_006.o (symbol from plugin)
chCacheObjectInit                                 ./build/obj/chobjcaches.o (symbol from plugin)
                                                  ./build/obj/oslib_test_sequence_006.o (symbol from plugin)
chCacheReadObject                                 ./build/obj/chobjcaches.o (symbol from plugin)
                                                  ./build/obj/oslib_test_sequence_006.o (symbol from plugin)
chCacheReleaseObjectI                             ./build/obj/chobjcaches.o (symbol from plugin)
                                                  ./build/obj/oslib_test_sequence_006.o (symbol from plugin)
chCacheWriteObject                                ./build/obj/chobjcaches.o (symbol from plugin)
chCondBroadcast                                   ./build/obj/chcond.o (symbol from plugin)
                                                  ./build/obj/rt_test_sequence_008.o (symbol from plugin)
chCondBroadcastI                                  ./build/obj/chcond.o (symbol from plugin)
chCondObjectInit                                  ./build/obj/chcond.o (symbol from plugin)
                                                  ./build/obj/rt_test_sequence_008.o (symbol from plugin)
chCondSignal                                      ./build/obj/chcond.o (symbol from plugin)
                                                  ./build/obj/rt_test_sequence_008.o (symbol from plugin)
chCondSignalI                                     ./build/obj/chcond.o (symbol from plugin)
                                                  ./build/obj/rt_test_sequence_008.o (symbol from plugin)
chCondWait                                        ./build/obj/chcond.o (symbol from plugin)
                                                  ./build/obj/rt_test_sequence_008.o (symbol from plugin)
chCondWaitS                                       ./build/obj/chcond.o (symbol from plugin)
chCondWaitTimeout                                 ./build/obj/chcond.o (symbol from plugin)
                                                  ./build/obj/rt_test_sequence_008.o (symbol from plugin)
chCondWaitTimeoutS                                ./build/obj/chcond.o (symbol from plugin)
chCoreAllocAlignedI.lto_priv.0                    /var/folders/yg/3nxcpv294hvfwgl_w3cbnbrh0000gn/T//ch.elf.rjwPRd.ltrans0.ltrans.o
                                                  /var/folders/yg/3nxcpv294hvfwgl_w3cbnbrh0000gn/T//ch.elf.rjwPRd.ltrans1.ltrans.o
chCoreAllocFromBase                               ./build/obj/chmemcore.o (symbol from plugin)
chCoreAllocFromBaseI                              ./build/obj/chmemcore.o (symbol from plugin)
chCoreAllocFromTop                                /var/folders/yg/3nxcpv294hvfwgl_w3cbnbrh0000gn/T//ch.elf.rjwPRd.ltrans0.ltrans.o
                                                  ./build/obj/chmemcore.o (symbol from plugin)
                                                  /var/folders/yg/3nxcpv294hvfwgl_w3cbnbrh0000gn/T//ch.elf.rjwPRd.ltrans1.ltrans.o
                                                  ./build/obj/chmemheaps.o (symbol from plugin)
chCoreAllocFromTopI                               ./build/obj/chmemcore.o (symbol from plugin)
                                                  ./build/obj/chfactory.o (symbol from plugin)
chCoreGetStatusX                                  ./build/obj/chmemcore.o (symbol from plugin)
                                                  ./build/obj/shell_cmd.o (symbol from plugin)
chDelegateCallVeneer                              /var/folders/yg/3nxcpv294hvfwgl_w3cbnbrh0000gn/T//ch.elf.rjwPRd.ltrans0.ltrans.o
                                                  ./build/obj/chdelegates.o (symbol from plugin)
                                                  /var/folders/yg/3nxcpv294hvfwgl_w3cbnbrh0000gn/T//ch.elf.rjwPRd.ltrans1.ltrans.o
                                                  ./build/obj/oslib_test_sequence_005.o (symbol from plugin)
chDelegateDispatch                                ./build/obj/chdelegates.o (symbol from plugin)
                                                  ./build/obj/oslib_test_sequence_005.o (symbol from plugin)
chDelegateDispatchTimeout                         ./build/obj/chdelegates.o (symbol from plugin)
chEvtAddEvents                                    ./build/obj/chevents.o (symbol from plugin)
                                                  ./build/obj/rt_test_sequence_010.o (symbol from plugin)
chEvtBroadcastFlags                               ./build/obj/chevents.o (symbol from plugin)
                                                  ./build/obj/rt_test_sequence_010.o (symbol from plugin)
chEvtBroadcastFlagsI                              /var/folders/yg/3nxcpv294hvfwgl_w3cbnbrh0000gn/T//ch.elf.rjwPRd.ltrans0.ltrans.o
                                                  ./build/obj/chevents.o (symbol from plugin)
                                                  /var/folders/yg/3nxcpv294hvfwgl_w3cbnbrh0000gn/T//ch.elf.rjwPRd.ltrans1.ltrans.o
                                                  ./build/obj/main.o (symbol from plugin)
                                                  ./build/obj/shell.o (symbol from plugin)
                                                  ./build/obj/hal_serial_usb.o (symbol from plugin)
chEvtDispatch                                     ./build/obj/chevents.o (symbol from plugin)
                                                  ./build/obj/main.o (symbol from plugin)
                                                  ./build/obj/rt_test_sequence_010.o (symbol from plugin)
chEvtGetAndClearEvents                            ./build/obj/chevents.o (symbol from plugin)
                                                  ./build/obj/rt_test_sequence_010.o (symbol from plugin)
chEvtGetAndClearEventsI                           ./build/obj/chevents.o (symbol from plugin)
chEvtGetAndClearFlags                             ./build/obj/chevents.o (symbol from plugin)
chEvtGetAndClearFlagsI                            ./build/obj/chevents.o (symbol from plugin)
chEvtRegisterMaskWithFlags                        ./build/obj/chevents.o (symbol from plugin)
                                                  ./build/obj/main.o (symbol from plugin)
                                                  ./build/obj/rt_test_sequence_010.o (symbol from plugin)
chEvtRegisterMaskWithFlagsI                       ./build/obj/chevents.o (symbol from plugin)
chEvtSignal                                       ./build/obj/chevents.o (symbol from plugin)
                                                  ./build/obj/rt_test_sequence_010.o (symbol from plugin)
chEvtSignalI                                      ./build/obj/chevents.o (symbol from plugin)
chEvtUnregister                                   ./build/obj/chevents.o (symbol from plugin)
                                                  ./build/obj/rt_test_sequence_010.o (symbol from plugin)
chEvtWaitAll                                      ./build/obj/chevents.o (symbol from plugin)
                                                  ./build/obj/rt_test_sequence_010.o (symbol from plugin)
chEvtWaitAllTimeout                               ./build/obj/chevents.o (symbol from plugin)
                                                  ./build/obj/rt_test_sequence_010.o (symbol from plugin)
chEvtWaitAny                                      ./build/obj/chevents.o (symbol from plugin)
                                                  ./build/obj/rt_test_sequence_010.o (symbol from plugin)
chEvtWaitAnyTimeout                               ./build/obj/chevents.o (symbol from plugin)
                                                  ./build/obj/rt_test_sequence_010.o (symbol from plugin)
chEvtWaitOne                                      ./build/obj/chevents.o (symbol from plugin)
                                                  ./build/obj/rt_test_sequence_010.o (symbol from plugin)
chEvtWaitOne.constprop.0                          /var/folders/yg/3nxcpv294hvfwgl_w3cbnbrh0000gn/T//ch.elf.rjwPRd.ltrans1.ltrans.o
                                                  /var/folders/yg/3nxcpv294hvfwgl_w3cbnbrh0000gn/T//ch.elf.rjwPRd.ltrans0.ltrans.o
chEvtWaitOneTimeout                               ./build/obj/chevents.o (symbol from plugin)
                                                  ./build/obj/main.o (symbol from plugin)
                                                  ./build/obj/rt_test_sequence_010.o (symbol from plugin)
chEvtWaitOneTimeout.constprop.0                   /var/folders/yg/3nxcpv294hvfwgl_w3cbnbrh0000gn/T//ch.elf.rjwPRd.ltrans1.ltrans.o
                                                  /var/folders/yg/3nxcpv294hvfwgl_w3cbnbrh0000gn/T//ch.elf.rjwPRd.ltrans0.ltrans.o
chFactoryCreateBuffer                             ./build/obj/chfactory.o (symbol from plugin)
                                                  ./build/obj/oslib_test_sequence_009.o (symbol from plugin)
chFactoryCreateMailbox                            ./build/obj/chfactory.o (symbol from plugin)
                                                  ./build/obj/oslib_test_sequence_009.o (symbol from plugin)
chFactoryCreateObjectsFIFO                        ./build/obj/chfactory.o (symbol from plugin)
                                                  ./build/obj/oslib_test_sequence_009.o (symbol from plugin)
chFactoryCreatePipe                               ./build/obj/chfactory.o (symbol from plugin)
                                                  ./build/obj/oslib_test_sequence_009.o (symbol from plugin)
chFactoryCreateSemaphore                          ./build/obj/chfactory.o (symbol from plugin)
                                                  ./build/obj/oslib_test_sequence_009.o (symbol from plugin)
chFactoryFindBuffer                               ./build/obj/chfactory.o (symbol from plugin)
                                                  ./build/obj/oslib_test_sequence_009.o (symbol from plugin)
chFactoryFindMailbox                              ./build/obj/chfactory.o (symbol from plugin)
                                                  ./build/obj/oslib_test_sequence_009.o (symbol from plugin)
chFactoryFindObject                               ./build/obj/chfactory.o (symbol from plugin)
                                                  ./build/obj/oslib_test_sequence_009.o (symbol from plugin)
chFactoryFindObjectByPointer                      ./build/obj/chfactory.o (symbol from plugin)
chFactoryFindObjectsFIFO                          ./build/obj/chfactory.o (symbol from plugin)
                                                  ./build/obj/oslib_test_sequence_009.o (symbol from plugin)
chFactoryFindPipe                                 ./build/obj/chfactory.o (symbol from plugin)
                                                  ./build/obj/oslib_test_sequence_009.o (symbol from plugin)
chFactoryFindSemaphore                            ./build/obj/chfactory.o (symbol from plugin)
                                                  ./build/obj/oslib_test_sequence_009.o (symbol from plugin)
chFactoryRegisterObject                           ./build/obj/chfactory.o (symbol from plugin)
                                                  ./build/obj/oslib_test_sequence_009.o (symbol from plugin)
chFactoryReleaseBuffer                            /var/folders/yg/3nxcpv294hvfwgl_w3cbnbrh0000gn/T//ch.elf.rjwPRd.ltrans0.ltrans.o
                                                  ./build/obj/chfactory.o (symbol from plugin)
                                                  /var/folders/yg/3nxcpv294hvfwgl_w3cbnbrh0000gn/T//ch.elf.rjwPRd.ltrans1.ltrans.o
                                                  ./build/obj/oslib_test_sequence_009.o (symbol from plugin)
chFactoryReleaseMailbox                           /var/folders/yg/3nxcpv294hvfwgl_w3cbnbrh0000gn/T//ch.elf.rjwPRd.ltrans0.ltrans.o
                                                  ./build/obj/chfactory.o (symbol from plugin)
                                                  /var/folders/yg/3nxcpv294hvfwgl_w3cbnbrh0000gn/T//ch.elf.rjwPRd.ltrans1.ltrans.o
                                                  ./build/obj/oslib_test_sequence_009.o (symbol from plugin)
chFactoryReleaseObject                            /var/folders/yg/3nxcpv294hvfwgl_w3cbnbrh0000gn/T//ch.elf.rjwPRd.ltrans0.ltrans.o
                                                  ./build/obj/chfactory.o (symbol from plugin)
                                                  /var/folders/yg/3nxcpv294hvfwgl_w3cbnbrh0000gn/T//ch.elf.rjwPRd.ltrans1.ltrans.o
                                                  ./build/obj/oslib_test_sequence_009.o (symbol from plugin)
chFactoryReleaseObjectsFIFO                       /var/folders/yg/3nxcpv294hvfwgl_w3cbnbrh0000gn/T//ch.elf.rjwPRd.ltrans0.ltrans.o
                                                  ./build/obj/chfactory.o (symbol from plugin)
                                                  /var/folders/yg/3nxcpv294hvfwgl_w3cbnbrh0000gn/T//ch.elf.rjwPRd.ltrans1.ltrans.o
                                                  ./build/obj/oslib_test_sequence_009.o (symbol from plugin)
chFactoryReleasePipe                              /var/folders/yg/3nxcpv294hvfwgl_w3cbnbrh0000gn/T//ch.elf.rjwPRd.ltrans0.ltrans.o
                                                  ./build/obj/chfactory.o (symbol from plugin)
                                                  /var/folders/yg/3nxcpv294hvfwgl_w3cbnbrh0000gn/T//ch.elf.rjwPRd.ltrans1.ltrans.o
                                                  ./build/obj/oslib_test_sequence_009.o (symbol from plugin)
chFactoryReleaseSemaphore                         /var/folders/yg/3nxcpv294hvfwgl_w3cbnbrh0000gn/T//ch.elf.rjwPRd.ltrans0.ltrans.o
                                                  ./build/obj/chfactory.o (symbol from plugin)
                                                  /var/folders/yg/3nxcpv294hvfwgl_w3cbnbrh0000gn/T//ch.elf.rjwPRd.ltrans1.ltrans.o
                                                  ./build/obj/oslib_test_sequence_009.o (symbol from plugin)
chGuardedPoolAllocTimeout                         /var/folders/yg/3nxcpv294hvfwgl_w3cbnbrh0000gn/T//ch.elf.rjwPRd.ltrans0.ltrans.o
                                                  ./build/obj/chmempools.o (symbol from plugin)
                                                  /var/folders/yg/3nxcpv294hvfwgl_w3cbnbrh0000gn/T//ch.elf.rjwPRd.ltrans1.ltrans.o
                                                  ./build/obj/oslib_test_sequence_007.o (symbol from plugin)
                                                  ./build/obj/oslib_test_sequence_004.o (symbol from plugin)
chGuardedPoolAllocTimeoutS                        ./build/obj/chmempools.o (symbol from plugin)
chGuardedPoolFree                                 ./build/obj/chmempools.o (symbol from plugin)
                                                  ./build/obj/oslib_test_sequence_007.o (symbol from plugin)
                                                  ./build/obj/oslib_test_sequence_004.o (symbol from plugin)
chGuardedPoolLoadArray                            ./build/obj/chmempools.o (symbol from plugin)
                                                  ./build/obj/oslib_test_sequence_007.o (symbol from plugin)
                                                  ./build/obj/oslib_test_sequence_004.o (symbol from plugin)
                                                  ./build/obj/chfactory.o (symbol from plugin)
chGuardedPoolObjectInitAligned                    ./build/obj/chmempools.o (symbol from plugin)
                                                  ./build/obj/oslib_test_sequence_007.o (symbol from plugin)
                                                  ./build/obj/oslib_test_sequence_004.o (symbol from plugin)
                                                  ./build/obj/chfactory.o (symbol from plugin)
chHeapAllocAligned                                /var/folders/yg/3nxcpv294hvfwgl_w3cbnbrh0000gn/T//ch.elf.rjwPRd.ltrans0.ltrans.o
                                                  ./build/obj/chmemheaps.o (symbol from plugin)
                                                  /var/folders/yg/3nxcpv294hvfwgl_w3cbnbrh0000gn/T//ch.elf.rjwPRd.ltrans1.ltrans.o
                                                  ./build/obj/oslib_test_sequence_008.o (symbol from plugin)
                                                  ./build/obj/fatfs_syscall.o (symbol from plugin)
                                                  ./build/obj/chfactory.o (symbol from plugin)
                                                  ./build/obj/chdynamic.o (symbol from plugin)
chHeapFree                                        /var/folders/yg/3nxcpv294hvfwgl_w3cbnbrh0000gn/T//ch.elf.rjwPRd.ltrans0.ltrans.o
                                                  ./build/obj/chmemheaps.o (symbol from plugin)
                                                  /var/folders/yg/3nxcpv294hvfwgl_w3cbnbrh0000gn/T//ch.elf.rjwPRd.ltrans1.ltrans.o
                                                  ./build/obj/oslib_test_sequence_008.o (symbol from plugin)
                                                  ./build/obj/fatfs_syscall.o (symbol from plugin)
                                                  ./build/obj/chfactory.o (symbol from plugin)
                                                  ./build/obj/chthreads.o (symbol from plugin)
chHeapObjectInit                                  ./build/obj/chmemheaps.o (symbol from plugin)
                                                  ./build/obj/oslib_test_sequence_008.o (symbol from plugin)
                                                  ./build/obj/rt_test_sequence_011.o (symbol from plugin)
chHeapStatus                                      /var/folders/yg/3nxcpv294hvfwgl_w3cbnbrh0000gn/T//ch.elf.rjwPRd.ltrans0.ltrans.o
                                                  ./build/obj/chmemheaps.o (symbol from plugin)
                                                  /var/folders/yg/3nxcpv294hvfwgl_w3cbnbrh0000gn/T//ch.elf.rjwPRd.ltrans1.ltrans.o
                                                  ./build/obj/oslib_test_sequence_008.o (symbol from plugin)
                                                  ./build/obj/rt_test_sequence_011.o (symbol from plugin)
                                                  ./build/obj/shell_cmd.o (symbol from plugin)
chInstanceObjectInit                              ./build/obj/chinstances.o (symbol from plugin)
                                                  ./build/obj/chsys.o (symbol from plugin)
chMBFetchI                                        ./build/obj/chmboxes.o (symbol from plugin)
                                                  ./build/obj/oslib_test_sequence_002.o (symbol from plugin)
chMBFetchTimeout                                  ./build/obj/chmboxes.o (symbol from plugin)
                                                  ./build/obj/oslib_test_sequence_004.o (symbol from plugin)
                                                  ./build/obj/oslib_test_sequence_002.o (symbol from plugin)
chMBFetchTimeoutS                                 /var/folders/yg/3nxcpv294hvfwgl_w3cbnbrh0000gn/T//ch.elf.rjwPRd.ltrans0.ltrans.o
                                                  ./build/obj/chmboxes.o (symbol from plugin)
                                                  /var/folders/yg/3nxcpv294hvfwgl_w3cbnbrh0000gn/T//ch.elf.rjwPRd.ltrans1.ltrans.o
chMBObjectInit                                    ./build/obj/chmboxes.o (symbol from plugin)
                                                  ./build/obj/oslib_test_sequence_004.o (symbol from plugin)
                                                  ./build/obj/oslib_test_sequence_002.o (symbol from plugin)
                                                  ./build/obj/chfactory.o (symbol from plugin)
chMBPostAheadI                                    ./build/obj/chmboxes.o (symbol from plugin)
                                                  ./build/obj/oslib_test_sequence_002.o (symbol from plugin)
chMBPostAheadTimeout                              ./build/obj/chmboxes.o (symbol from plugin)
                                                  ./build/obj/oslib_test_sequence_002.o (symbol from plugin)
chMBPostAheadTimeoutS                             ./build/obj/chmboxes.o (symbol from plugin)
chMBPostI                                         ./build/obj/chmboxes.o (symbol from plugin)
                                                  ./build/obj/oslib_test_sequence_002.o (symbol from plugin)
chMBPostTimeout                                   /var/folders/yg/3nxcpv294hvfwgl_w3cbnbrh0000gn/T//ch.elf.rjwPRd.ltrans0.ltrans.o
                                                  ./build/obj/chmboxes.o (symbol from plugin)
                                                  /var/folders/yg/3nxcpv294hvfwgl_w3cbnbrh0000gn/T//ch.elf.rjwPRd.ltrans1.ltrans.o
                                                  ./build/obj/oslib_test_sequence_004.o (symbol from plugin)
                                                  ./build/obj/oslib_test_sequence_002.o (symbol from plugin)
chMBPostTimeoutS                                  ./build/obj/chmboxes.o (symbol from plugin)
chMBReset                                         ./build/obj/chmboxes.o (symbol from plugin)
                                                  ./build/obj/oslib_test_sequence_002.o (symbol from plugin)
chMBResetI                                        ./build/obj/chmboxes.o (symbol from plugin)
                                                  ./build/obj/oslib_test_sequence_002.o (symbol from plugin)
chMsgPollS                                        ./build/obj/chmsg.o (symbol from plugin)
chMsgRelease                                      ./build/obj/chmsg.o (symbol from plugin)
                                                  ./build/obj/rt_test_sequence_012.o (symbol from plugin)
                                                  ./build/obj/rt_test_sequence_009.o (symbol from plugin)
                                                  ./build/obj/chdelegates.o (symbol from plugin)
chMsgSend                                         ./build/obj/chmsg.o (symbol from plugin)
                                                  ./build/obj/rt_test_sequence_012.o (symbol from plugin)
                                                  ./build/obj/rt_test_sequence_009.o (symbol from plugin)
                                                  ./build/obj/chdelegates.o (symbol from plugin)
chMsgWaitS                                        ./build/obj/chmsg.o (symbol from plugin)
                                                  ./build/obj/rt_test_sequence_012.o (symbol from plugin)
                                                  ./build/obj/rt_test_sequence_009.o (symbol from plugin)
                                                  ./build/obj/chdelegates.o (symbol from plugin)
chMsgWaitTimeoutS                                 ./build/obj/chmsg.o (symbol from plugin)
                                                  ./build/obj/chdelegates.o (symbol from plugin)
chMtxLock                                         ./build/obj/chmtx.o (symbol from plugin)
                                                  ./build/obj/rt_test_sequence_012.o (symbol from plugin)
                                                  ./build/obj/rt_test_sequence_008.o (symbol from plugin)
                                                  ./build/obj/chfactory.o (symbol from plugin)
                                                  ./build/obj/chpipes.o (symbol from plugin)
                                                  ./build/obj/chmemheaps.o (symbol from plugin)
chMtxLockS                                        /var/folders/yg/3nxcpv294hvfwgl_w3cbnbrh0000gn/T//ch.elf.rjwPRd.ltrans0.ltrans.o
                                                  ./build/obj/chmtx.o (symbol from plugin)
                                                  /var/folders/yg/3nxcpv294hvfwgl_w3cbnbrh0000gn/T//ch.elf.rjwPRd.ltrans1.ltrans.o
                                                  ./build/obj/rt_test_sequence_008.o (symbol from plugin)
                                                  ./build/obj/chcond.o (symbol from plugin)
chMtxObjectInit                                   ./build/obj/chmtx.o (symbol from plugin)
                                                  ./build/obj/rt_test_sequence_012.o (symbol from plugin)
                                                  ./build/obj/rt_test_sequence_008.o (symbol from plugin)
                                                  ./build/obj/chfactory.o (symbol from plugin)
                                                  ./build/obj/chpipes.o (symbol from plugin)
                                                  ./build/obj/chmemheaps.o (symbol from plugin)
chMtxTryLock                                      ./build/obj/chmtx.o (symbol from plugin)
                                                  ./build/obj/rt_test_sequence_008.o (symbol from plugin)
chMtxTryLockS                                     ./build/obj/chmtx.o (symbol from plugin)
chMtxUnlock                                       /var/folders/yg/3nxcpv294hvfwgl_w3cbnbrh0000gn/T//ch.elf.rjwPRd.ltrans0.ltrans.o
                                                  ./build/obj/chmtx.o (symbol from plugin)
                                                  /var/folders/yg/3nxcpv294hvfwgl_w3cbnbrh0000gn/T//ch.elf.rjwPRd.ltrans1.ltrans.o
                                                  ./build/obj/rt_test_sequence_012.o (symbol from plugin)
                                                  ./build/obj/rt_test_sequence_008.o (symbol from plugin)
                                                  ./build/obj/chfactory.o (symbol from plugin)
                                                  ./build/obj/chpipes.o (symbol from plugin)
                                                  ./build/obj/chmemheaps.o (symbol from plugin)
chMtxUnlockAll                                    ./build/obj/chmtx.o (symbol from plugin)
                                                  ./build/obj/rt_test_sequence_008.o (symbol from plugin)
chMtxUnlockAllS                                   ./build/obj/chmtx.o (symbol from plugin)
chMtxUnlockS                                      ./build/obj/chmtx.o (symbol from plugin)
                                                  ./build/obj/rt_test_sequence_008.o (symbol from plugin)
                                                  ./build/obj/chcond.o (symbol from plugin)
chPipeObjectInit                                  ./build/obj/chpipes.o (symbol from plugin)
                                                  ./build/obj/oslib_test_sequence_003.o (symbol from plugin)
                                                  ./build/obj/chfactory.o (symbol from plugin)
chPipeReadTimeout                                 ./build/obj/chpipes.o (symbol from plugin)
                                                  ./build/obj/oslib_test_sequence_003.o (symbol from plugin)
chPipeReset                                       ./build/obj/chpipes.o (symbol from plugin)
                                                  ./build/obj/oslib_test_sequence_003.o (symbol from plugin)
chPipeWriteTimeout                                ./build/obj/chpipes.o (symbol from plugin)
                                                  ./build/obj/oslib_test_sequence_003.o (symbol from plugin)
chPoolAlloc                                       ./build/obj/chmempools.o (symbol from plugin)
                                                  ./build/obj/oslib_test_sequence_007.o (symbol from plugin)
                                                  ./build/obj/rt_test_sequence_011.o (symbol from plugin)
                                                  ./build/obj/chfactory.o (symbol from plugin)
                                                  ./build/obj/chdynamic.o (symbol from plugin)
chPoolAllocI                                      ./build/obj/chmempools.o (symbol from plugin)
chPoolFree                                        ./build/obj/chmempools.o (symbol from plugin)
                                                  ./build/obj/oslib_test_sequence_007.o (symbol from plugin)
                                                  ./build/obj/rt_test_sequence_011.o (symbol from plugin)
                                                  ./build/obj/chfactory.o (symbol from plugin)
                                                  ./build/obj/chthreads.o (symbol from plugin)
chPoolFreeI                                       ./build/obj/chmempools.o (symbol from plugin)
chPoolLoadArray                                   ./build/obj/chmempools.o (symbol from plugin)
                                                  ./build/obj/oslib_test_sequence_007.o (symbol from plugin)
chPoolObjectInitAligned                           ./build/obj/chmempools.o (symbol from plugin)
                                                  ./build/obj/oslib_test_sequence_007.o (symbol from plugin)
                                                  ./build/obj/rt_test_sequence_011.o (symbol from plugin)
                                                  ./build/obj/chfactory.o (symbol from plugin)
chRFCUCollectFaultsI                              ./build/obj/chrfcu.o (symbol from plugin)
                                                  ./build/obj/chvt.o (symbol from plugin)
chRFCUGetAndClearFaultsI                          ./build/obj/chrfcu.o (symbol from plugin)
chRegFindThreadByName                             ./build/obj/chregistry.o (symbol from plugin)
chRegFindThreadByPointer                          ./build/obj/chregistry.o (symbol from plugin)
chRegFindThreadByWorkingArea                      ./build/obj/chregistry.o (symbol from plugin)
chRegFirstThread                                  ./build/obj/chregistry.o (symbol from plugin)
                                                  ./build/obj/shell_cmd.o (symbol from plugin)
chRegNextThread                                   ./build/obj/chregistry.o (symbol from plugin)
                                                  ./build/obj/shell_cmd.o (symbol from plugin)
chSchDoPreemption                                 /var/folders/yg/3nxcpv294hvfwgl_w3cbnbrh0000gn/T//ch.elf.rjwPRd.ltrans0.ltrans.o
                                                  ./build/obj/chschd.o (symbol from plugin)
                                                  ./build/obj/chcoreasm.o
chSchDoYieldS                                     ./build/obj/chschd.o (symbol from plugin)
                                                  ./build/obj/chthreads.o (symbol from plugin)
chSchGoSleepS                                     ./build/obj/chschd.o (symbol from plugin)
                                                  ./build/obj/rt_test_sequence_012.o (symbol from plugin)
                                                  ./build/obj/chmsg.o (symbol from plugin)
                                                  ./build/obj/chevents.o (symbol from plugin)
                                                  ./build/obj/chcond.o (symbol from plugin)
                                                  ./build/obj/chmtx.o (symbol from plugin)
                                                  ./build/obj/chsem.o (symbol from plugin)
                                                  ./build/obj/chthreads.o (symbol from plugin)
chSchGoSleepTimeoutS                              /var/folders/yg/3nxcpv294hvfwgl_w3cbnbrh0000gn/T//ch.elf.rjwPRd.ltrans0.ltrans.o
                                                  ./build/obj/chschd.o (symbol from plugin)
                                                  /var/folders/yg/3nxcpv294hvfwgl_w3cbnbrh0000gn/T//ch.elf.rjwPRd.ltrans1.ltrans.o
                                                  ./build/obj/chmsg.o (symbol from plugin)
                                                  ./build/obj/chevents.o (symbol from plugin)
                                                  ./build/obj/chcond.o (symbol from plugin)
                                                  ./build/obj/chsem.o (symbol from plugin)
                                                  ./build/obj/chthreads.o (symbol from plugin)
chSchIsPreemptionRequired                         ./build/obj/chschd.o (symbol from plugin)
                                                  ./build/obj/chcore.o (symbol from plugin)
chSchPreemption                                   ./build/obj/chschd.o (symbol from plugin)
chSchReadyI                                       ./build/obj/chschd.o (symbol from plugin)
                                                  ./build/obj/chmsg.o (symbol from plugin)
                                                  ./build/obj/chevents.o (symbol from plugin)
                                                  ./build/obj/chcond.o (symbol from plugin)
                                                  ./build/obj/chmtx.o (symbol from plugin)
                                                  ./build/obj/chsem.o (symbol from plugin)
                                                  ./build/obj/chthreads.o (symbol from plugin)
chSchRescheduleS                                  ./build/obj/chschd.o (symbol from plugin)
                                                  ./build/obj/oslib_test_sequence_006.o (symbol from plugin)
                                                  ./build/obj/rt_test_sequence_008.o (symbol from plugin)
                                                  ./build/obj/rt_test_sequence_007.o (symbol from plugin)
                                                  ./build/obj/rt_test_sequence_006.o (symbol from plugin)
                                                  ./build/obj/chpipes.o (symbol from plugin)
                                                  ./build/obj/chmempools.o (symbol from plugin)
                                                  ./build/obj/chmboxes.o (symbol from plugin)
                                                  ./build/obj/chevents.o (symbol from plugin)
                                                  ./build/obj/chcond.o (symbol from plugin)
                                                  ./build/obj/chmtx.o (symbol from plugin)
                                                  ./build/obj/chsem.o (symbol from plugin)
                                                  ./build/obj/chthreads.o (symbol from plugin)
                                                  ./build/obj/chsys.o (symbol from plugin)
                                                  ./build/obj/hal_usb.o (symbol from plugin)
                                                  ./build/obj/hal_serial_usb.o (symbol from plugin)
chSchSelectFirstI                                 ./build/obj/chschd.o (symbol from plugin)
chSchWakeupS                                      /var/folders/yg/3nxcpv294hvfwgl_w3cbnbrh0000gn/T//ch.elf.rjwPRd.ltrans0.ltrans.o
                                                  ./build/obj/chschd.o (symbol from plugin)
                                                  /var/folders/yg/3nxcpv294hvfwgl_w3cbnbrh0000gn/T//ch.elf.rjwPRd.ltrans1.ltrans.o
                                                  ./build/obj/rt_test_sequence_012.o (symbol from plugin)
                                                  ./build/obj/chdynamic.o (symbol from plugin)
                                                  ./build/obj/chmsg.o (symbol from plugin)
                                                  ./build/obj/chcond.o (symbol from plugin)
                                                  ./build/obj/chsem.o (symbol from plugin)
                                                  ./build/obj/chthreads.o (symbol from plugin)
chSemAddCounterI                                  ./build/obj/chsem.o (symbol from plugin)
                                                  ./build/obj/rt_test_sequence_007.o (symbol from plugin)
chSemObjectInit                                   ./build/obj/chsem.o (symbol from plugin)
                                                  ./build/obj/rt_test_sequence_012.o (symbol from plugin)
                                                  ./build/obj/rt_test_sequence_007.o (symbol from plugin)
                                                  ./build/obj/chfactory.o (symbol from plugin)
                                                  ./build/obj/chobjcaches.o (symbol from plugin)
                                                  ./build/obj/chmempools.o (symbol from plugin)
chSemResetWithMessage                             ./build/obj/chsem.o (symbol from plugin)
                                                  ./build/obj/rt_test_sequence_012.o (symbol from plugin)
                                                  ./build/obj/rt_test_sequence_007.o (symbol from plugin)
chSemResetWithMessage.constprop.0                 /var/folders/yg/3nxcpv294hvfwgl_w3cbnbrh0000gn/T//ch.elf.rjwPRd.ltrans1.ltrans.o
                                                  /var/folders/yg/3nxcpv294hvfwgl_w3cbnbrh0000gn/T//ch.elf.rjwPRd.ltrans0.ltrans.o
chSemResetWithMessageI                            ./build/obj/chsem.o (symbol from plugin)
chSemSignal                                       ./build/obj/chsem.o (symbol from plugin)
                                                  ./build/obj/rt_test_sequence_012.o (symbol from plugin)
                                                  ./build/obj/rt_test_sequence_007.o (symbol from plugin)
chSemSignalI                                      /var/folders/yg/3nxcpv294hvfwgl_w3cbnbrh0000gn/T//ch.elf.rjwPRd.ltrans0.ltrans.o
                                                  ./build/obj/chsem.o (symbol from plugin)
                                                  /var/folders/yg/3nxcpv294hvfwgl_w3cbnbrh0000gn/T//ch.elf.rjwPRd.ltrans1.ltrans.o
                                                  ./build/obj/rt_test_sequence_007.o (symbol from plugin)
                                                  ./build/obj/chobjcaches.o (symbol from plugin)
                                                  ./build/obj/chmempools.o (symbol from plugin)
chSemSignalWait                                   ./build/obj/chsem.o (symbol from plugin)
                                                  ./build/obj/rt_test_sequence_007.o (symbol from plugin)
chSemSignalWait.constprop.0.isra.0                /var/folders/yg/3nxcpv294hvfwgl_w3cbnbrh0000gn/T//ch.elf.rjwPRd.ltrans1.ltrans.o
                                                  /var/folders/yg/3nxcpv294hvfwgl_w3cbnbrh0000gn/T//ch.elf.rjwPRd.ltrans0.ltrans.o
chSemWait                                         ./build/obj/chsem.o (symbol from plugin)
                                                  ./build/obj/rt_test_sequence_012.o (symbol from plugin)
                                                  ./build/obj/rt_test_sequence_007.o (symbol from plugin)
chSemWaitS                                        ./build/obj/chsem.o (symbol from plugin)
                                                  ./build/obj/chobjcaches.o (symbol from plugin)
chSemWaitTimeout                                  ./build/obj/chsem.o (symbol from plugin)
                                                  ./build/obj/rt_test_sequence_007.o (symbol from plugin)
chSemWaitTimeoutS                                 ./build/obj/chsem.o (symbol from plugin)
                                                  ./build/obj/chmempools.o (symbol from plugin)
chSysGetStatusAndLockX                            ./build/obj/chsys.o (symbol from plugin)
                                                  ./build/obj/rt_test_sequence_002.o (symbol from plugin)
chSysHalt                                         ./build/obj/chsys.o (symbol from plugin)
chSysInit                                         ./build/obj/chsys.o (symbol from plugin)
                                                  ./build/obj/main.o (symbol from plugin)
chSysIntegrityCheckI                              ./build/obj/chsys.o (symbol from plugin)
                                                  ./build/obj/rt_test_sequence_002.o (symbol from plugin)
chSysIsCounterWithinX                             ./build/obj/chsys.o (symbol from plugin)
chSysPolledDelayX                                 ./build/obj/chsys.o (symbol from plugin)
chSysRestoreStatusX                               ./build/obj/chsys.o (symbol from plugin)
                                                  ./build/obj/rt_test_sequence_002.o (symbol from plugin)
chSysTimerHandlerI                                ./build/obj/chsys.o (symbol from plugin)
                                                  ./build/obj/hal_st_lld.o (symbol from plugin)
chSysWaitSystemState                              ./build/obj/chsys.o (symbol from plugin)
chTMChainMeasurementToX                           ./build/obj/chtm.o (symbol from plugin)
chTMObjectInit                                    ./build/obj/chtm.o (symbol from plugin)
                                                  ./build/obj/chsys.o (symbol from plugin)
chTMStartMeasurementX                             /var/folders/yg/3nxcpv294hvfwgl_w3cbnbrh0000gn/T//ch.elf.rjwPRd.ltrans0.ltrans.o
                                                  ./build/obj/chtm.o (symbol from plugin)
                                                  /var/folders/yg/3nxcpv294hvfwgl_w3cbnbrh0000gn/T//ch.elf.rjwPRd.ltrans1.ltrans.o
                                                  ./build/obj/chsys.o (symbol from plugin)
chTMStopMeasurementX                              /var/folders/yg/3nxcpv294hvfwgl_w3cbnbrh0000gn/T//ch.elf.rjwPRd.ltrans0.ltrans.o
                                                  ./build/obj/chtm.o (symbol from plugin)
                                                  /var/folders/yg/3nxcpv294hvfwgl_w3cbnbrh0000gn/T//ch.elf.rjwPRd.ltrans1.ltrans.o
                                                  ./build/obj/chsys.o (symbol from plugin)
chThdAddRef                                       ./build/obj/chthreads.o (symbol from plugin)
chThdCreate                                       ./build/obj/chthreads.o (symbol from plugin)
                                                  ./build/obj/oslib_test_sequence_005.o (symbol from plugin)
                                                  ./build/obj/oslib_test_sequence_004.o (symbol from plugin)
chThdCreateFromHeap                               /var/folders/yg/3nxcpv294hvfwgl_w3cbnbrh0000gn/T//ch.elf.rjwPRd.ltrans0.ltrans.o
                                                  ./build/obj/chdynamic.o (symbol from plugin)
                                                  /var/folders/yg/3nxcpv294hvfwgl_w3cbnbrh0000gn/T//ch.elf.rjwPRd.ltrans1.ltrans.o
                                                  ./build/obj/main.o (symbol from plugin)
                                                  ./build/obj/rt_test_sequence_011.o (symbol from plugin)
                                                  ./build/obj/shell_cmd.o (symbol from plugin)
chThdCreateFromMemoryPool                         ./build/obj/chdynamic.o (symbol from plugin)
                                                  ./build/obj/rt_test_sequence_011.o (symbol from plugin)
chThdCreateFromMemoryPool.constprop.0             /var/folders/yg/3nxcpv294hvfwgl_w3cbnbrh0000gn/T//ch.elf.rjwPRd.ltrans1.ltrans.o
                                                  /var/folders/yg/3nxcpv294hvfwgl_w3cbnbrh0000gn/T//ch.elf.rjwPRd.ltrans0.ltrans.o
chThdCreateI                                      ./build/obj/chthreads.o (symbol from plugin)
                                                  ./build/obj/chinstances.o (symbol from plugin)
chThdCreateStatic                                 ./build/obj/chthreads.o (symbol from plugin)
                                                  ./build/obj/main.o (symbol from plugin)
                                                  ./build/obj/rt_test_sequence_012.o (symbol from plugin)
                                                  ./build/obj/rt_test_sequence_010.o (symbol from plugin)
                                                  ./build/obj/rt_test_sequence_009.o (symbol from plugin)
                                                  ./build/obj/rt_test_sequence_008.o (symbol from plugin)
                                                  ./build/obj/rt_test_sequence_007.o (symbol from plugin)
                                                  ./build/obj/rt_test_sequence_006.o (symbol from plugin)
                                                  ./build/obj/rt_test_sequence_005.o (symbol from plugin)
chThdCreateStatic.constprop.0                     /var/folders/yg/3nxcpv294hvfwgl_w3cbnbrh0000gn/T//ch.elf.rjwPRd.ltrans1.ltrans.o
                                                  /var/folders/yg/3nxcpv294hvfwgl_w3cbnbrh0000gn/T//ch.elf.rjwPRd.ltrans0.ltrans.o
chThdCreateSuspended                              ./build/obj/chthreads.o (symbol from plugin)
chThdCreateSuspendedI                             /var/folders/yg/3nxcpv294hvfwgl_w3cbnbrh0000gn/T//ch.elf.rjwPRd.ltrans0.ltrans.o
                                                  ./build/obj/chthreads.o (symbol from plugin)
                                                  /var/folders/yg/3nxcpv294hvfwgl_w3cbnbrh0000gn/T//ch.elf.rjwPRd.ltrans1.ltrans.o
                                                  ./build/obj/chdynamic.o (symbol from plugin)
chThdDequeueAllI                                  ./build/obj/chthreads.o (symbol from plugin)
                                                  ./build/obj/chmboxes.o (symbol from plugin)
                                                  ./build/obj/hal_serial_usb.o (symbol from plugin)
                                                  ./build/obj/hal_queues.o (symbol from plugin)
                                                  ./build/obj/hal_buffers.o (symbol from plugin)
chThdDequeueNextI                                 ./build/obj/chthreads.o (symbol from plugin)
                                                  ./build/obj/chmboxes.o (symbol from plugin)
                                                  ./build/obj/hal_queues.o (symbol from plugin)
                                                  ./build/obj/hal_buffers.o (symbol from plugin)
chThdEnqueueTimeoutS                              ./build/obj/chthreads.o (symbol from plugin)
                                                  ./build/obj/chmboxes.o (symbol from plugin)
                                                  ./build/obj/hal_queues.o (symbol from plugin)
                                                  ./build/obj/hal_buffers.o (symbol from plugin)
chThdExit                                         /var/folders/yg/3nxcpv294hvfwgl_w3cbnbrh0000gn/T//ch.elf.rjwPRd.ltrans0.ltrans.o
                                                  ./build/obj/chthreads.o (symbol from plugin)
                                                  ./build/obj/oslib_test_sequence_005.o (symbol from plugin)
                                                  ./build/obj/rt_test_sequence_012.o (symbol from plugin)
                                                  ./build/obj/chcoreasm.o
chThdExitS                                        /var/folders/yg/3nxcpv294hvfwgl_w3cbnbrh0000gn/T//ch.elf.rjwPRd.ltrans0.ltrans.o
                                                  ./build/obj/chthreads.o (symbol from plugin)
                                                  /var/folders/yg/3nxcpv294hvfwgl_w3cbnbrh0000gn/T//ch.elf.rjwPRd.ltrans1.ltrans.o
                                                  ./build/obj/shell.o (symbol from plugin)
chThdRelease                                      ./build/obj/chthreads.o (symbol from plugin)
                                                  ./build/obj/rt_test_sequence_012.o (symbol from plugin)
                                                  ./build/obj/chregistry.o (symbol from plugin)
chThdRelease.part.0                               /var/folders/yg/3nxcpv294hvfwgl_w3cbnbrh0000gn/T//ch.elf.rjwPRd.ltrans0.ltrans.o
                                                  /var/folders/yg/3nxcpv294hvfwgl_w3cbnbrh0000gn/T//ch.elf.rjwPRd.ltrans1.ltrans.o
chThdResume                                       ./build/obj/chthreads.o (symbol from plugin)
                                                  ./build/obj/chpipes.o (symbol from plugin)
chThdResumeI                                      ./build/obj/chthreads.o (symbol from plugin)
                                                  ./build/obj/rt_test_sequence_006.o (symbol from plugin)
                                                  ./build/obj/chpipes.o (symbol from plugin)
                                                  ./build/obj/hal_sdc_lld.o (symbol from plugin)
chThdResumeS                                      ./build/obj/chthreads.o (symbol from plugin)
chThdSetPriority                                  ./build/obj/chthreads.o (symbol from plugin)
                                                  ./build/obj/rt_test_sequence_005.o (symbol from plugin)
chThdSleep                                        ./build/obj/chthreads.o (symbol from plugin)
                                                  ./build/obj/main.o (symbol from plugin)
                                                  ./build/obj/oslib_test_sequence_004.o (symbol from plugin)
                                                  ./build/obj/rt_test_sequence_012.o (symbol from plugin)
                                                  ./build/obj/rt_test_sequence_010.o (symbol from plugin)
                                                  ./build/obj/rt_test_sequence_008.o (symbol from plugin)
                                                  ./build/obj/rt_test_sequence_007.o (symbol from plugin)
                                                  ./build/obj/rt_test_sequence_005.o (symbol from plugin)
                                                  ./build/obj/rt_test_sequence_002.o (symbol from plugin)
                                                  ./build/obj/rt_test_root.o (symbol from plugin)
                                                  ./build/obj/ch_test.o (symbol from plugin)
                                                  ./build/obj/hal_sdc_lld.o (symbol from plugin)
                                                  ./build/obj/hal_usb.o (symbol from plugin)
                                                  ./build/obj/hal_sdc.o (symbol from plugin)
                                                  ./build/obj/hal_flash.o (symbol from plugin)
chThdSleepUntil                                   ./build/obj/chthreads.o (symbol from plugin)
                                                  ./build/obj/rt_test_sequence_005.o (symbol from plugin)
chThdSleepUntilWindowed                           ./build/obj/chthreads.o (symbol from plugin)
chThdStart                                        ./build/obj/chthreads.o (symbol from plugin)
chThdSuspendS                                     ./build/obj/chthreads.o (symbol from plugin)
chThdSuspendTimeoutS                              ./build/obj/chthreads.o (symbol from plugin)
                                                  ./build/obj/rt_test_sequence_006.o (symbol from plugin)
                                                  ./build/obj/chpipes.o (symbol from plugin)
                                                  ./build/obj/hal_sdc_lld.o (symbol from plugin)
chThdTerminate                                    ./build/obj/chthreads.o (symbol from plugin)
                                                  ./build/obj/rt_test_root.o (symbol from plugin)
chThdWait                                         /var/folders/yg/3nxcpv294hvfwgl_w3cbnbrh0000gn/T//ch.elf.rjwPRd.ltrans0.ltrans.o
                                                  ./build/obj/chthreads.o (symbol from plugin)
                                                  /var/folders/yg/3nxcpv294hvfwgl_w3cbnbrh0000gn/T//ch.elf.rjwPRd.ltrans1.ltrans.o
                                                  ./build/obj/main.o (symbol from plugin)
                                                  ./build/obj/oslib_test_sequence_005.o (symbol from plugin)
                                                  ./build/obj/oslib_test_sequence_004.o (symbol from plugin)
                                                  ./build/obj/rt_test_sequence_012.o (symbol from plugin)
                                                  ./build/obj/rt_test_root.o (symbol from plugin)
                                                  ./build/obj/shell_cmd.o (symbol from plugin)
chThdYield                                        ./build/obj/chthreads.o (symbol from plugin)
                                                  ./build/obj/rt_test_sequence_012.o (symbol from plugin)
chVTDoResetI                                      /var/folders/yg/3nxcpv294hvfwgl_w3cbnbrh0000gn/T//ch.elf.rjwPRd.ltrans0.ltrans.o
                                                  ./build/obj/chvt.o (symbol from plugin)
                                                  /var/folders/yg/3nxcpv294hvfwgl_w3cbnbrh0000gn/T//ch.elf.rjwPRd.ltrans1.ltrans.o
                                                  ./build/obj/main.o (symbol from plugin)
                                                  ./build/obj/rt_test_sequence_012.o (symbol from plugin)
                                                  ./build/obj/rt_test_sequence_002.o (symbol from plugin)
                                                  ./build/obj/chschd.o (symbol from plugin)
chVTDoSetContinuousI                              ./build/obj/chvt.o (symbol from plugin)
chVTDoSetI                                        ./build/obj/chvt.o (symbol from plugin)
                                                  ./build/obj/main.o (symbol from plugin)
                                                  ./build/obj/rt_test_sequence_012.o (symbol from plugin)
                                                  ./build/obj/rt_test_sequence_002.o (symbol from plugin)
                                                  ./build/obj/chschd.o (symbol from plugin)
chVTDoTickI                                       ./build/obj/chvt.o (symbol from plugin)
                                                  ./build/obj/chsys.o (symbol from plugin)
chVTGetRemainingIntervalI                         ./build/obj/chvt.o (symbol from plugin)
chVTGetTimeStampI                                 ./build/obj/chvt.o (symbol from plugin)
                                                  ./build/obj/rt_test_sequence_004.o (symbol from plugin)
chVTResetTimeStampI                               ./build/obj/chvt.o (symbol from plugin)
ch_core0_cfg                                      ./build/obj/chsys.o (symbol from plugin)
ch_debug                                          ./build/obj/chregistry.o (symbol from plugin)
                                                  ./build/obj/chinstances.o (symbol from plugin)
ch_factory                                        /var/folders/yg/3nxcpv294hvfwgl_w3cbnbrh0000gn/T//ch.elf.rjwPRd.ltrans0.ltrans.o
                                                  ./build/obj/chfactory.o (symbol from plugin)
                                                  /var/folders/yg/3nxcpv294hvfwgl_w3cbnbrh0000gn/T//ch.elf.rjwPRd.ltrans1.ltrans.o
ch_memcore                                        /var/folders/yg/3nxcpv294hvfwgl_w3cbnbrh0000gn/T//ch.elf.rjwPRd.ltrans0.ltrans.o
                                                  ./build/obj/chmemcore.o (symbol from plugin)
                                                  /var/folders/yg/3nxcpv294hvfwgl_w3cbnbrh0000gn/T//ch.elf.rjwPRd.ltrans1.ltrans.o
ch_system                                         /var/folders/yg/3nxcpv294hvfwgl_w3cbnbrh0000gn/T//ch.elf.rjwPRd.ltrans0.ltrans.o
                                                  ./build/obj/chsys.o (symbol from plugin)
                                                  /var/folders/yg/3nxcpv294hvfwgl_w3cbnbrh0000gn/T//ch.elf.rjwPRd.ltrans1.ltrans.o
                                                  ./build/obj/chtm.o (symbol from plugin)
                                                  ./build/obj/chinstances.o (symbol from plugin)
ch_test.c.30196762                                /var/folders/yg/3nxcpv294hvfwgl_w3cbnbrh0000gn/T//cc5GxNhn.debug.temp.o
                                                  /var/folders/yg/3nxcpv294hvfwgl_w3cbnbrh0000gn/T//ch.elf.rjwPRd.ltrans1.ltrans.o
                                                  /var/folders/yg/3nxcpv294hvfwgl_w3cbnbrh0000gn/T//ch.elf.rjwPRd.ltrans0.ltrans.o
ch_test_printf.c.49e6bd3e                         /var/folders/yg/3nxcpv294hvfwgl_w3cbnbrh0000gn/T//ccNCraa9.debug.temp.o
                                                  /var/folders/yg/3nxcpv294hvfwgl_w3cbnbrh0000gn/T//ch.elf.rjwPRd.ltrans1.ltrans.o
                                                  /var/folders/yg/3nxcpv294hvfwgl_w3cbnbrh0000gn/T//ch.elf.rjwPRd.ltrans0.ltrans.o
chcond.c.09aa10ef                                 /var/folders/yg/3nxcpv294hvfwgl_w3cbnbrh0000gn/T//cchuCNYR.debug.temp.o
                                                  /var/folders/yg/3nxcpv294hvfwgl_w3cbnbrh0000gn/T//ch.elf.rjwPRd.ltrans0.ltrans.o
chcore.c.360f62f5                                 /var/folders/yg/3nxcpv294hvfwgl_w3cbnbrh0000gn/T//ccfUj7Ic.debug.temp.o
                                                  /var/folders/yg/3nxcpv294hvfwgl_w3cbnbrh0000gn/T//ch.elf.rjwPRd.ltrans1.ltrans.o
                                                  /var/folders/yg/3nxcpv294hvfwgl_w3cbnbrh0000gn/T//ch.elf.rjwPRd.ltrans0.ltrans.o
chdebug.c.af57acdd                                /var/folders/yg/3nxcpv294hvfwgl_w3cbnbrh0000gn/T//ccqs1lGF.debug.temp.o
chdelegates.c.a6a0bad9                            /var/folders/yg/3nxcpv294hvfwgl_w3cbnbrh0000gn/T//ccmnndzo.debug.temp.o
                                                  /var/folders/yg/3nxcpv294hvfwgl_w3cbnbrh0000gn/T//ch.elf.rjwPRd.ltrans1.ltrans.o
                                                  /var/folders/yg/3nxcpv294hvfwgl_w3cbnbrh0000gn/T//ch.elf.rjwPRd.ltrans0.ltrans.o
chdynamic.c.4f11ea45                              /var/folders/yg/3nxcpv294hvfwgl_w3cbnbrh0000gn/T//ccagiXP9.debug.temp.o
                                                  /var/folders/yg/3nxcpv294hvfwgl_w3cbnbrh0000gn/T//ch.elf.rjwPRd.ltrans1.ltrans.o
                                                  /var/folders/yg/3nxcpv294hvfwgl_w3cbnbrh0000gn/T//ch.elf.rjwPRd.ltrans0.ltrans.o
check_fs.lto_priv.0                               /var/folders/yg/3nxcpv294hvfwgl_w3cbnbrh0000gn/T//ch.elf.rjwPRd.ltrans0.ltrans.o
                                                  /var/folders/yg/3nxcpv294hvfwgl_w3cbnbrh0000gn/T//ch.elf.rjwPRd.ltrans1.ltrans.o
chevents.c.44ea1709                               /var/folders/yg/3nxcpv294hvfwgl_w3cbnbrh0000gn/T//ccsBzqQ4.debug.temp.o
                                                  /var/folders/yg/3nxcpv294hvfwgl_w3cbnbrh0000gn/T//ch.elf.rjwPRd.ltrans1.ltrans.o
                                                  /var/folders/yg/3nxcpv294hvfwgl_w3cbnbrh0000gn/T//ch.elf.rjwPRd.ltrans0.ltrans.o
chfactory.c.3393e190                              /var/folders/yg/3nxcpv294hvfwgl_w3cbnbrh0000gn/T//ccREkILu.debug.temp.o
                                                  /var/folders/yg/3nxcpv294hvfwgl_w3cbnbrh0000gn/T//ch.elf.rjwPRd.ltrans1.ltrans.o
                                                  /var/folders/yg/3nxcpv294hvfwgl_w3cbnbrh0000gn/T//ch.elf.rjwPRd.ltrans0.ltrans.o
chinstances.c.9f07e995                            /var/folders/yg/3nxcpv294hvfwgl_w3cbnbrh0000gn/T//ccrq9Vrw.debug.temp.o
                                                  /var/folders/yg/3nxcpv294hvfwgl_w3cbnbrh0000gn/T//ch.elf.rjwPRd.ltrans1.ltrans.o
                                                  /var/folders/yg/3nxcpv294hvfwgl_w3cbnbrh0000gn/T//ch.elf.rjwPRd.ltrans0.ltrans.o
chmboxes.c.baf77d11                               /var/folders/yg/3nxcpv294hvfwgl_w3cbnbrh0000gn/T//ccz9cfOn.debug.temp.o
                                                  /var/folders/yg/3nxcpv294hvfwgl_w3cbnbrh0000gn/T//ch.elf.rjwPRd.ltrans1.ltrans.o
                                                  /var/folders/yg/3nxcpv294hvfwgl_w3cbnbrh0000gn/T//ch.elf.rjwPRd.ltrans0.ltrans.o
chmemcore.c.5a75532c                              /var/folders/yg/3nxcpv294hvfwgl_w3cbnbrh0000gn/T//ccVHwVMv.debug.temp.o
                                                  /var/folders/yg/3nxcpv294hvfwgl_w3cbnbrh0000gn/T//ch.elf.rjwPRd.ltrans1.ltrans.o
                                                  /var/folders/yg/3nxcpv294hvfwgl_w3cbnbrh0000gn/T//ch.elf.rjwPRd.ltrans0.ltrans.o
chmemheaps.c.0afbd924                             /var/folders/yg/3nxcpv294hvfwgl_w3cbnbrh0000gn/T//cckBlZvD.debug.temp.o
                                                  /var/folders/yg/3nxcpv294hvfwgl_w3cbnbrh0000gn/T//ch.elf.rjwPRd.ltrans1.ltrans.o
                                                  /var/folders/yg/3nxcpv294hvfwgl_w3cbnbrh0000gn/T//ch.elf.rjwPRd.ltrans0.ltrans.o
chmempools.c.d8871426                             /var/folders/yg/3nxcpv294hvfwgl_w3cbnbrh0000gn/T//ccJ1rvLE.debug.temp.o
                                                  /var/folders/yg/3nxcpv294hvfwgl_w3cbnbrh0000gn/T//ch.elf.rjwPRd.ltrans1.ltrans.o
                                                  /var/folders/yg/3nxcpv294hvfwgl_w3cbnbrh0000gn/T//ch.elf.rjwPRd.ltrans0.ltrans.o
chmsg.c.1637a9b4                                  /var/folders/yg/3nxcpv294hvfwgl_w3cbnbrh0000gn/T//ccCA6jco.debug.temp.o
                                                  /var/folders/yg/3nxcpv294hvfwgl_w3cbnbrh0000gn/T//ch.elf.rjwPRd.ltrans1.ltrans.o
                                                  /var/folders/yg/3nxcpv294hvfwgl_w3cbnbrh0000gn/T//ch.elf.rjwPRd.ltrans0.ltrans.o
chmtx.c.77bbb2e6                                  /var/folders/yg/3nxcpv294hvfwgl_w3cbnbrh0000gn/T//cczwCn8z.debug.temp.o
                                                  /var/folders/yg/3nxcpv294hvfwgl_w3cbnbrh0000gn/T//ch.elf.rjwPRd.ltrans1.ltrans.o
                                                  /var/folders/yg/3nxcpv294hvfwgl_w3cbnbrh0000gn/T//ch.elf.rjwPRd.ltrans0.ltrans.o
chobjcaches.c.450093b9                            /var/folders/yg/3nxcpv294hvfwgl_w3cbnbrh0000gn/T//cc6FCR9q.debug.temp.o
                                                  /var/folders/yg/3nxcpv294hvfwgl_w3cbnbrh0000gn/T//ch.elf.rjwPRd.ltrans1.ltrans.o
chpipes.c.44462010                                /var/folders/yg/3nxcpv294hvfwgl_w3cbnbrh0000gn/T//ccsZX2SD.debug.temp.o
                                                  /var/folders/yg/3nxcpv294hvfwgl_w3cbnbrh0000gn/T//ch.elf.rjwPRd.ltrans1.ltrans.o
chprintf                                          /var/folders/yg/3nxcpv294hvfwgl_w3cbnbrh0000gn/T//ch.elf.rjwPRd.ltrans0.ltrans.o
                                                  ./build/obj/chprintf.o (symbol from plugin)
                                                  /var/folders/yg/3nxcpv294hvfwgl_w3cbnbrh0000gn/T//ch.elf.rjwPRd.ltrans1.ltrans.o
                                                  ./build/obj/main.o (symbol from plugin)
                                                  ./build/obj/shell_cmd.o (symbol from plugin)
                                                  ./build/obj/shell.o (symbol from plugin)
chprintf.c.53e15443                               /var/folders/yg/3nxcpv294hvfwgl_w3cbnbrh0000gn/T//ccyx9CQf.debug.temp.o
                                                  /var/folders/yg/3nxcpv294hvfwgl_w3cbnbrh0000gn/T//ch.elf.rjwPRd.ltrans1.ltrans.o
                                                  /var/folders/yg/3nxcpv294hvfwgl_w3cbnbrh0000gn/T//ch.elf.rjwPRd.ltrans0.ltrans.o
chregistry.c.2d5e384b                             /var/folders/yg/3nxcpv294hvfwgl_w3cbnbrh0000gn/T//ccu18jlC.debug.temp.o
                                                  /var/folders/yg/3nxcpv294hvfwgl_w3cbnbrh0000gn/T//ch.elf.rjwPRd.ltrans1.ltrans.o
                                                  /var/folders/yg/3nxcpv294hvfwgl_w3cbnbrh0000gn/T//ch.elf.rjwPRd.ltrans0.ltrans.o
chrfcu.c.931abc68                                 /var/folders/yg/3nxcpv294hvfwgl_w3cbnbrh0000gn/T//ccOLTT8T.debug.temp.o
                                                  /var/folders/yg/3nxcpv294hvfwgl_w3cbnbrh0000gn/T//ch.elf.rjwPRd.ltrans0.ltrans.o
chscanf                                           ./build/obj/chscanf.o (symbol from plugin)
chscanf.c.146cd637                                /var/folders/yg/3nxcpv294hvfwgl_w3cbnbrh0000gn/T//ccJZcxyu.debug.temp.o
chschd.c.157ceecb                                 /var/folders/yg/3nxcpv294hvfwgl_w3cbnbrh0000gn/T//cc2eTdRk.debug.temp.o
                                                  /var/folders/yg/3nxcpv294hvfwgl_w3cbnbrh0000gn/T//ch.elf.rjwPRd.ltrans1.ltrans.o
                                                  /var/folders/yg/3nxcpv294hvfwgl_w3cbnbrh0000gn/T//ch.elf.rjwPRd.ltrans0.ltrans.o
chsem.c.f231b4ba                                  /var/folders/yg/3nxcpv294hvfwgl_w3cbnbrh0000gn/T//ccGWGlU7.debug.temp.o
                                                  /var/folders/yg/3nxcpv294hvfwgl_w3cbnbrh0000gn/T//ch.elf.rjwPRd.ltrans1.ltrans.o
                                                  /var/folders/yg/3nxcpv294hvfwgl_w3cbnbrh0000gn/T//ch.elf.rjwPRd.ltrans0.ltrans.o
chsnprintf                                        ./build/obj/chprintf.o (symbol from plugin)
chsnscanf                                         ./build/obj/chscanf.o (symbol from plugin)
chsys.c.683fd48c                                  /var/folders/yg/3nxcpv294hvfwgl_w3cbnbrh0000gn/T//ccLsnWLb.debug.temp.o
                                                  /var/folders/yg/3nxcpv294hvfwgl_w3cbnbrh0000gn/T//ch.elf.rjwPRd.ltrans1.ltrans.o
                                                  /var/folders/yg/3nxcpv294hvfwgl_w3cbnbrh0000gn/T//ch.elf.rjwPRd.ltrans0.ltrans.o
chtest                                            /var/folders/yg/3nxcpv294hvfwgl_w3cbnbrh0000gn/T//ch.elf.rjwPRd.ltrans0.ltrans.o
                                                  ./build/obj/ch_test.o (symbol from plugin)
                                                  /var/folders/yg/3nxcpv294hvfwgl_w3cbnbrh0000gn/T//ch.elf.rjwPRd.ltrans1.ltrans.o
                                                  ./build/obj/oslib_test_sequence_009.o (symbol from plugin)
                                                  ./build/obj/oslib_test_sequence_008.o (symbol from plugin)
                                                  ./build/obj/oslib_test_sequence_007.o (symbol from plugin)
                                                  ./build/obj/oslib_test_sequence_006.o (symbol from plugin)
                                                  ./build/obj/oslib_test_sequence_005.o (symbol from plugin)
                                                  ./build/obj/oslib_test_sequence_004.o (symbol from plugin)
                                                  ./build/obj/oslib_test_sequence_003.o (symbol from plugin)
                                                  ./build/obj/oslib_test_sequence_002.o (symbol from plugin)
                                                  ./build/obj/oslib_test_sequence_001.o (symbol from plugin)
                                                  ./build/obj/rt_test_sequence_012.o (symbol from plugin)
                                                  ./build/obj/rt_test_sequence_011.o (symbol from plugin)
                                                  ./build/obj/rt_test_sequence_010.o (symbol from plugin)
                                                  ./build/obj/rt_test_sequence_009.o (symbol from plugin)
                                                  ./build/obj/rt_test_sequence_008.o (symbol from plugin)
                                                  ./build/obj/rt_test_sequence_007.o (symbol from plugin)
                                                  ./build/obj/rt_test_sequence_006.o (symbol from plugin)
                                                  ./build/obj/rt_test_sequence_005.o (symbol from plugin)
                                                  ./build/obj/rt_test_sequence_004.o (symbol from plugin)
                                                  ./build/obj/rt_test_sequence_003.o (symbol from plugin)
                                                  ./build/obj/rt_test_sequence_002.o (symbol from plugin)
                                                  ./build/obj/rt_test_sequence_001.o (symbol from plugin)
                                                  ./build/obj/ch_test_printf.o (symbol from plugin)
chthreads.c.4e8d9e67                              /var/folders/yg/3nxcpv294hvfwgl_w3cbnbrh0000gn/T//cca9wbrn.debug.temp.o
                                                  /var/folders/yg/3nxcpv294hvfwgl_w3cbnbrh0000gn/T//ch.elf.rjwPRd.ltrans1.ltrans.o
                                                  /var/folders/yg/3nxcpv294hvfwgl_w3cbnbrh0000gn/T//ch.elf.rjwPRd.ltrans0.ltrans.o
chtm.c.eb9ab984                                   /var/folders/yg/3nxcpv294hvfwgl_w3cbnbrh0000gn/T//ccJFb7AH.debug.temp.o
                                                  /var/folders/yg/3nxcpv294hvfwgl_w3cbnbrh0000gn/T//ch.elf.rjwPRd.ltrans1.ltrans.o
                                                  /var/folders/yg/3nxcpv294hvfwgl_w3cbnbrh0000gn/T//ch.elf.rjwPRd.ltrans0.ltrans.o
chtrace.c.8f3a29ef                                /var/folders/yg/3nxcpv294hvfwgl_w3cbnbrh0000gn/T//cc9iHK8b.debug.temp.o
chvprintf                                         ./build/obj/chprintf.o (symbol from plugin)
chvscanf                                          ./build/obj/chscanf.o (symbol from plugin)
chvsnprintf                                       ./build/obj/chprintf.o (symbol from plugin)
chvsnscanf                                        ./build/obj/chscanf.o (symbol from plugin)
chvt.c.8a228645                                   /var/folders/yg/3nxcpv294hvfwgl_w3cbnbrh0000gn/T//ccyES0dk.debug.temp.o
                                                  /var/folders/yg/3nxcpv294hvfwgl_w3cbnbrh0000gn/T//ch.elf.rjwPRd.ltrans1.ltrans.o
                                                  /var/folders/yg/3nxcpv294hvfwgl_w3cbnbrh0000gn/T//ch.elf.rjwPRd.ltrans0.ltrans.o
crt1.c.fe78d451                                   /var/folders/yg/3nxcpv294hvfwgl_w3cbnbrh0000gn/T//ccsc4w2v.debug.temp.o
                                                  /var/folders/yg/3nxcpv294hvfwgl_w3cbnbrh0000gn/T//ch.elf.rjwPRd.ltrans0.ltrans.o
default_heap.lto_priv.0                           /var/folders/yg/3nxcpv294hvfwgl_w3cbnbrh0000gn/T//ch.elf.rjwPRd.ltrans0.ltrans.o
                                                  /var/folders/yg/3nxcpv294hvfwgl_w3cbnbrh0000gn/T//ch.elf.rjwPRd.ltrans1.ltrans.o
disk_initialize                                   ./build/obj/fatfs_diskio.o (symbol from plugin)
                                                  ./build/obj/ff.o (symbol from plugin)
disk_ioctl                                        ./build/obj/fatfs_diskio.o (symbol from plugin)
                                                  ./build/obj/ff.o (symbol from plugin)
disk_read                                         ./build/obj/fatfs_diskio.o (symbol from plugin)
                                                  ./build/obj/ff.o (symbol from plugin)
disk_status                                       ./build/obj/fatfs_diskio.o (symbol from plugin)
                                                  ./build/obj/ff.o (symbol from plugin)
disk_write                                        ./build/obj/fatfs_diskio.o (symbol from plugin)
                                                  ./build/obj/ff.o (symbol from plugin)
dma.lto_priv.0                                    /var/folders/yg/3nxcpv294hvfwgl_w3cbnbrh0000gn/T//ch.elf.rjwPRd.ltrans0.ltrans.o
                                                  /var/folders/yg/3nxcpv294hvfwgl_w3cbnbrh0000gn/T//ch.elf.rjwPRd.ltrans1.ltrans.o
dmaInit                                           ./build/obj/stm32_dma.o (symbol from plugin)
                                                  ./build/obj/hal_lld.o (symbol from plugin)
dmaServeInterrupt                                 ./build/obj/stm32_dma.o (symbol from plugin)
dmaStreamAlloc                                    ./build/obj/stm32_dma.o (symbol from plugin)
dmaStreamAllocI                                   ./build/obj/stm32_dma.o (symbol from plugin)
                                                  ./build/obj/hal_sdc_lld.o (symbol from plugin)
dmaStreamFree                                     ./build/obj/stm32_dma.o (symbol from plugin)
dmaStreamFreeI                                    ./build/obj/stm32_dma.o (symbol from plugin)
                                                  ./build/obj/hal_sdc_lld.o (symbol from plugin)
dyn_create_object_heap.lto_priv.0                 /var/folders/yg/3nxcpv294hvfwgl_w3cbnbrh0000gn/T//ch.elf.rjwPRd.ltrans0.ltrans.o
                                                  /var/folders/yg/3nxcpv294hvfwgl_w3cbnbrh0000gn/T//ch.elf.rjwPRd.ltrans1.ltrans.o
dyn_thread1.lto_priv.0                            /var/folders/yg/3nxcpv294hvfwgl_w3cbnbrh0000gn/T//ch.elf.rjwPRd.ltrans0.ltrans.o
                                                  /var/folders/yg/3nxcpv294hvfwgl_w3cbnbrh0000gn/T//ch.elf.rjwPRd.ltrans1.ltrans.o
ep0_state.lto_priv.0                              /var/folders/yg/3nxcpv294hvfwgl_w3cbnbrh0000gn/T//ch.elf.rjwPRd.ltrans0.ltrans.o
ep0config.lto_priv.0                              /var/folders/yg/3nxcpv294hvfwgl_w3cbnbrh0000gn/T//ch.elf.rjwPRd.ltrans0.ltrans.o
                                                  /var/folders/yg/3nxcpv294hvfwgl_w3cbnbrh0000gn/T//ch.elf.rjwPRd.ltrans1.ltrans.o
ep0setup_buffer.lto_priv.0                        /var/folders/yg/3nxcpv294hvfwgl_w3cbnbrh0000gn/T//ch.elf.rjwPRd.ltrans0.ltrans.o
f_close                                           ./build/obj/ff.o (symbol from plugin)
f_closedir                                        ./build/obj/ff.o (symbol from plugin)
f_getfree                                         ./build/obj/ff.o (symbol from plugin)
                                                  ./build/obj/main.o (symbol from plugin)
f_lseek                                           ./build/obj/ff.o (symbol from plugin)
f_mkdir                                           ./build/obj/ff.o (symbol from plugin)
f_mount                                           ./build/obj/ff.o (symbol from plugin)
                                                  ./build/obj/main.o (symbol from plugin)
f_open                                            ./build/obj/ff.o (symbol from plugin)
f_opendir                                         ./build/obj/ff.o (symbol from plugin)
                                                  ./build/obj/main.o (symbol from plugin)
f_read                                            ./build/obj/ff.o (symbol from plugin)
f_readdir                                         ./build/obj/ff.o (symbol from plugin)
                                                  ./build/obj/main.o (symbol from plugin)
f_rename                                          ./build/obj/ff.o (symbol from plugin)
f_stat                                            ./build/obj/ff.o (symbol from plugin)
f_sync                                            ./build/obj/ff.o (symbol from plugin)
f_truncate                                        ./build/obj/ff.o (symbol from plugin)
f_unlink                                          ./build/obj/ff.o (symbol from plugin)
f_write                                           ./build/obj/ff.o (symbol from plugin)
fatfs_diskio.c.4f19e681                           /var/folders/yg/3nxcpv294hvfwgl_w3cbnbrh0000gn/T//ccWYoy8A.debug.temp.o
                                                  /var/folders/yg/3nxcpv294hvfwgl_w3cbnbrh0000gn/T//ch.elf.rjwPRd.ltrans1.ltrans.o
                                                  /var/folders/yg/3nxcpv294hvfwgl_w3cbnbrh0000gn/T//ch.elf.rjwPRd.ltrans0.ltrans.o
fatfs_syscall.c.d5e56f97                          /var/folders/yg/3nxcpv294hvfwgl_w3cbnbrh0000gn/T//ccrBykP2.debug.temp.o
                                                  /var/folders/yg/3nxcpv294hvfwgl_w3cbnbrh0000gn/T//ch.elf.rjwPRd.ltrans1.ltrans.o
ff.c.b9e873f2                                     /var/folders/yg/3nxcpv294hvfwgl_w3cbnbrh0000gn/T//ccd3BiZf.debug.temp.o
                                                  /var/folders/yg/3nxcpv294hvfwgl_w3cbnbrh0000gn/T//ch.elf.rjwPRd.ltrans1.ltrans.o
                                                  /var/folders/yg/3nxcpv294hvfwgl_w3cbnbrh0000gn/T//ch.elf.rjwPRd.ltrans0.ltrans.o
ff_memalloc                                       ./build/obj/fatfs_syscall.o (symbol from plugin)
                                                  ./build/obj/ff.o (symbol from plugin)
ff_memfree                                        ./build/obj/fatfs_syscall.o (symbol from plugin)
                                                  ./build/obj/ff.o (symbol from plugin)
ff_oem2uni                                        ./build/obj/ffunicode.o (symbol from plugin)
                                                  ./build/obj/ff.o (symbol from plugin)
ff_uni2oem                                        ./build/obj/ffunicode.o (symbol from plugin)
                                                  ./build/obj/ff.o (symbol from plugin)
ff_wtoupper                                       ./build/obj/ffunicode.o (symbol from plugin)
                                                  ./build/obj/ff.o (symbol from plugin)
ff_wtoupper.part.0                                /var/folders/yg/3nxcpv294hvfwgl_w3cbnbrh0000gn/T//ch.elf.rjwPRd.ltrans0.ltrans.o
                                                  /var/folders/yg/3nxcpv294hvfwgl_w3cbnbrh0000gn/T//ch.elf.rjwPRd.ltrans1.ltrans.o
ffunicode.c.4ef36ba3                              /var/folders/yg/3nxcpv294hvfwgl_w3cbnbrh0000gn/T//ccVHUzBX.debug.temp.o
                                                  /var/folders/yg/3nxcpv294hvfwgl_w3cbnbrh0000gn/T//ch.elf.rjwPRd.ltrans1.ltrans.o
                                                  /var/folders/yg/3nxcpv294hvfwgl_w3cbnbrh0000gn/T//ch.elf.rjwPRd.ltrans0.ltrans.o
flashGetSectorOffset                              ./build/obj/hal_flash.o (symbol from plugin)
flashGetSectorSize                                ./build/obj/hal_flash.o (symbol from plugin)
flashWaitErase                                    ./build/obj/hal_flash.o (symbol from plugin)
get_descriptor.lto_priv.0                         /var/folders/yg/3nxcpv294hvfwgl_w3cbnbrh0000gn/T//ch.elf.rjwPRd.ltrans0.ltrans.o
                                                  /var/folders/yg/3nxcpv294hvfwgl_w3cbnbrh0000gn/T//ch.elf.rjwPRd.ltrans1.ltrans.o
get_fat.lto_priv.0                                /var/folders/yg/3nxcpv294hvfwgl_w3cbnbrh0000gn/T//ch.elf.rjwPRd.ltrans0.ltrans.o
                                                  /var/folders/yg/3nxcpv294hvfwgl_w3cbnbrh0000gn/T//ch.elf.rjwPRd.ltrans1.ltrans.o
get_fattime                                       ./build/obj/fatfs_diskio.o (symbol from plugin)
                                                  ./build/obj/ff.o (symbol from plugin)
get_ldnumber.lto_priv.0                           /var/folders/yg/3nxcpv294hvfwgl_w3cbnbrh0000gn/T//ch.elf.rjwPRd.ltrans0.ltrans.o
                                                  /var/folders/yg/3nxcpv294hvfwgl_w3cbnbrh0000gn/T//ch.elf.rjwPRd.ltrans1.ltrans.o
hal.c.9a1acb85                                    /var/folders/yg/3nxcpv294hvfwgl_w3cbnbrh0000gn/T//ccEnBsBL.debug.temp.o
                                                  /var/folders/yg/3nxcpv294hvfwgl_w3cbnbrh0000gn/T//ch.elf.rjwPRd.ltrans1.ltrans.o
halInit                                           ./build/obj/hal.o (symbol from plugin)
                                                  ./build/obj/main.o (symbol from plugin)
hal_buffers.c.d246170d                            /var/folders/yg/3nxcpv294hvfwgl_w3cbnbrh0000gn/T//ccqqkKEK.debug.temp.o
                                                  /var/folders/yg/3nxcpv294hvfwgl_w3cbnbrh0000gn/T//ch.elf.rjwPRd.ltrans1.ltrans.o
                                                  /var/folders/yg/3nxcpv294hvfwgl_w3cbnbrh0000gn/T//ch.elf.rjwPRd.ltrans0.ltrans.o
hal_efl_lld.c.b0c476f7                            /var/folders/yg/3nxcpv294hvfwgl_w3cbnbrh0000gn/T//cchvLCfV.debug.temp.o
hal_flash.c.7a408b6a                              /var/folders/yg/3nxcpv294hvfwgl_w3cbnbrh0000gn/T//cchJVjTc.debug.temp.o
hal_lld.c.98af90f5                                /var/folders/yg/3nxcpv294hvfwgl_w3cbnbrh0000gn/T//ccFQM362.debug.temp.o
                                                  /var/folders/yg/3nxcpv294hvfwgl_w3cbnbrh0000gn/T//ch.elf.rjwPRd.ltrans1.ltrans.o
                                                  /var/folders/yg/3nxcpv294hvfwgl_w3cbnbrh0000gn/T//ch.elf.rjwPRd.ltrans0.ltrans.o
hal_lld_init                                      ./build/obj/hal_lld.o (symbol from plugin)
                                                  ./build/obj/hal.o (symbol from plugin)
hal_mmcsd.c.d5b58925                              /var/folders/yg/3nxcpv294hvfwgl_w3cbnbrh0000gn/T//ccaHgcBV.debug.temp.o
                                                  /var/folders/yg/3nxcpv294hvfwgl_w3cbnbrh0000gn/T//ch.elf.rjwPRd.ltrans0.ltrans.o
hal_pal.c.55195cef                                /var/folders/yg/3nxcpv294hvfwgl_w3cbnbrh0000gn/T//ccsMUYCt.debug.temp.o
hal_pal_lld.c.cffdc2a9                            /var/folders/yg/3nxcpv294hvfwgl_w3cbnbrh0000gn/T//ccch4slX.debug.temp.o
                                                  /var/folders/yg/3nxcpv294hvfwgl_w3cbnbrh0000gn/T//ch.elf.rjwPRd.ltrans1.ltrans.o
hal_queues.c.36ffc217                             /var/folders/yg/3nxcpv294hvfwgl_w3cbnbrh0000gn/T//ccE5oIQr.debug.temp.o
hal_sdc.c.99f7ab39                                /var/folders/yg/3nxcpv294hvfwgl_w3cbnbrh0000gn/T//ccoEuz8b.debug.temp.o
                                                  /var/folders/yg/3nxcpv294hvfwgl_w3cbnbrh0000gn/T//ch.elf.rjwPRd.ltrans1.ltrans.o
                                                  /var/folders/yg/3nxcpv294hvfwgl_w3cbnbrh0000gn/T//ch.elf.rjwPRd.ltrans0.ltrans.o
hal_sdc_lld.c.c709be8a                            /var/folders/yg/3nxcpv294hvfwgl_w3cbnbrh0000gn/T//ccKW2t2M.debug.temp.o
                                                  /var/folders/yg/3nxcpv294hvfwgl_w3cbnbrh0000gn/T//ch.elf.rjwPRd.ltrans1.ltrans.o
                                                  /var/folders/yg/3nxcpv294hvfwgl_w3cbnbrh0000gn/T//ch.elf.rjwPRd.ltrans0.ltrans.o
hal_serial_usb.c.7d6104d4                         /var/folders/yg/3nxcpv294hvfwgl_w3cbnbrh0000gn/T//cc47Gxtg.debug.temp.o
                                                  /var/folders/yg/3nxcpv294hvfwgl_w3cbnbrh0000gn/T//ch.elf.rjwPRd.ltrans1.ltrans.o
                                                  /var/folders/yg/3nxcpv294hvfwgl_w3cbnbrh0000gn/T//ch.elf.rjwPRd.ltrans0.ltrans.o
hal_st.c.43e3a943                                 /var/folders/yg/3nxcpv294hvfwgl_w3cbnbrh0000gn/T//ccnPPcf1.debug.temp.o
                                                  /var/folders/yg/3nxcpv294hvfwgl_w3cbnbrh0000gn/T//ch.elf.rjwPRd.ltrans1.ltrans.o
                                                  /var/folders/yg/3nxcpv294hvfwgl_w3cbnbrh0000gn/T//ch.elf.rjwPRd.ltrans0.ltrans.o
hal_st_lld.c.711fc708                             /var/folders/yg/3nxcpv294hvfwgl_w3cbnbrh0000gn/T//ccqB9LUH.debug.temp.o
                                                  /var/folders/yg/3nxcpv294hvfwgl_w3cbnbrh0000gn/T//ch.elf.rjwPRd.ltrans1.ltrans.o
                                                  /var/folders/yg/3nxcpv294hvfwgl_w3cbnbrh0000gn/T//ch.elf.rjwPRd.ltrans0.ltrans.o
hal_usb.c.f9cd66e7                                /var/folders/yg/3nxcpv294hvfwgl_w3cbnbrh0000gn/T//cckFYBf2.debug.temp.o
                                                  /var/folders/yg/3nxcpv294hvfwgl_w3cbnbrh0000gn/T//ch.elf.rjwPRd.ltrans1.ltrans.o
                                                  /var/folders/yg/3nxcpv294hvfwgl_w3cbnbrh0000gn/T//ch.elf.rjwPRd.ltrans0.ltrans.o
hal_usb_lld.c.beb8bb6a                            /var/folders/yg/3nxcpv294hvfwgl_w3cbnbrh0000gn/T//ccYHJ1B4.debug.temp.o
                                                  /var/folders/yg/3nxcpv294hvfwgl_w3cbnbrh0000gn/T//ch.elf.rjwPRd.ltrans1.ltrans.o
                                                  /var/folders/yg/3nxcpv294hvfwgl_w3cbnbrh0000gn/T//ch.elf.rjwPRd.ltrans0.ltrans.o
ibnotify.lto_priv.0                               /var/folders/yg/3nxcpv294hvfwgl_w3cbnbrh0000gn/T//ch.elf.rjwPRd.ltrans0.ltrans.o
                                                  /var/folders/yg/3nxcpv294hvfwgl_w3cbnbrh0000gn/T//ch.elf.rjwPRd.ltrans1.ltrans.o
ibqGetEmptyBufferI                                ./build/obj/hal_buffers.o (symbol from plugin)
                                                  ./build/obj/hal_serial_usb.o (symbol from plugin)
ibqGetFullBufferTimeout                           ./build/obj/hal_buffers.o (symbol from plugin)
ibqGetFullBufferTimeoutS                          ./build/obj/hal_buffers.o (symbol from plugin)
ibqGetTimeout                                     ./build/obj/hal_buffers.o (symbol from plugin)
                                                  ./build/obj/hal_serial_usb.o (symbol from plugin)
ibqObjectInit                                     ./build/obj/hal_buffers.o (symbol from plugin)
                                                  ./build/obj/hal_serial_usb.o (symbol from plugin)
ibqPostFullBufferI                                ./build/obj/hal_buffers.o (symbol from plugin)
                                                  ./build/obj/hal_serial_usb.o (symbol from plugin)
ibqReadTimeout                                    ./build/obj/hal_buffers.o (symbol from plugin)
                                                  ./build/obj/hal_serial_usb.o (symbol from plugin)
ibqReleaseEmptyBuffer                             ./build/obj/hal_buffers.o (symbol from plugin)
ibqReleaseEmptyBufferS                            ./build/obj/hal_buffers.o (symbol from plugin)
ibqResetI                                         ./build/obj/hal_buffers.o (symbol from plugin)
                                                  ./build/obj/hal_serial_usb.o (symbol from plugin)
iqGetI                                            ./build/obj/hal_queues.o (symbol from plugin)
iqGetTimeout                                      ./build/obj/hal_queues.o (symbol from plugin)
iqObjectInit                                      ./build/obj/hal_queues.o (symbol from plugin)
iqPutI                                            ./build/obj/hal_queues.o (symbol from plugin)
iqReadI                                           ./build/obj/hal_queues.o (symbol from plugin)
iqReadTimeout                                     ./build/obj/hal_queues.o (symbol from plugin)
iqResetI                                          ./build/obj/hal_queues.o (symbol from plugin)
irqDeinit                                         ./build/obj/stm32_isr.o (symbol from plugin)
irqInit                                           ./build/obj/stm32_isr.o (symbol from plugin)
                                                  ./build/obj/hal_lld.o (symbol from plugin)
main                                              /var/folders/yg/3nxcpv294hvfwgl_w3cbnbrh0000gn/T//ch.elf.rjwPRd.ltrans1.ltrans.o
                                                  ./build/obj/main.o (symbol from plugin)
                                                  ./build/obj/crt0_v7m.o
main.c.560d7372                                   /var/folders/yg/3nxcpv294hvfwgl_w3cbnbrh0000gn/T//ccin0BHY.debug.temp.o
                                                  /var/folders/yg/3nxcpv294hvfwgl_w3cbnbrh0000gn/T//ch.elf.rjwPRd.ltrans1.ltrans.o
memcmp                                            /usr/local/Caskroom/gcc-arm-embedded/10-2020-q4-major/gcc-arm-none-eabi-10-2020-q4-major/bin/../lib/gcc/arm-none-eabi/10.2.1/../../../../arm-none-eabi/lib/thumb/v7-m/nofp/libg.a(lib_a-memcmp.o)
                                                  /var/folders/yg/3nxcpv294hvfwgl_w3cbnbrh0000gn/T//ch.elf.rjwPRd.ltrans1.ltrans.o
memcpy                                            /usr/local/Caskroom/gcc-arm-embedded/10-2020-q4-major/gcc-arm-none-eabi-10-2020-q4-major/bin/../lib/gcc/arm-none-eabi/10.2.1/../../../../arm-none-eabi/lib/thumb/v7-m/nofp/libg.a(lib_a-memcpy.o)
                                                  /var/folders/yg/3nxcpv294hvfwgl_w3cbnbrh0000gn/T//ch.elf.rjwPRd.ltrans1.ltrans.o
                                                  /var/folders/yg/3nxcpv294hvfwgl_w3cbnbrh0000gn/T//ch.elf.rjwPRd.ltrans0.ltrans.o
memset                                            /usr/local/Caskroom/gcc-arm-embedded/10-2020-q4-major/gcc-arm-none-eabi-10-2020-q4-major/bin/../lib/gcc/arm-none-eabi/10.2.1/../../../../arm-none-eabi/lib/thumb/v7-m/nofp/libg.a(lib_a-memset.o)
                                                  /var/folders/yg/3nxcpv294hvfwgl_w3cbnbrh0000gn/T//ch.elf.rjwPRd.ltrans1.ltrans.o
                                                  /var/folders/yg/3nxcpv294hvfwgl_w3cbnbrh0000gn/T//ch.elf.rjwPRd.ltrans0.ltrans.o
memstreams.c.e62fb680                             /var/folders/yg/3nxcpv294hvfwgl_w3cbnbrh0000gn/T//ccTwW8Hb.debug.temp.o
move_window.part.0.lto_priv.0                     /var/folders/yg/3nxcpv294hvfwgl_w3cbnbrh0000gn/T//ch.elf.rjwPRd.ltrans0.ltrans.o
                                                  /var/folders/yg/3nxcpv294hvfwgl_w3cbnbrh0000gn/T//ch.elf.rjwPRd.ltrans1.ltrans.o
mp1.lto_priv.0                                    /var/folders/yg/3nxcpv294hvfwgl_w3cbnbrh0000gn/T//ch.elf.rjwPRd.ltrans0.ltrans.o
                                                  /var/folders/yg/3nxcpv294hvfwgl_w3cbnbrh0000gn/T//ch.elf.rjwPRd.ltrans1.ltrans.o
msObjectInit                                      ./build/obj/memstreams.o (symbol from plugin)
                                                  ./build/obj/chscanf.o (symbol from plugin)
                                                  ./build/obj/chprintf.o (symbol from plugin)
nullObjectInit                                    ./build/obj/nullstreams.o (symbol from plugin)
nullstreams.c.fb3f9fa0                            /var/folders/yg/3nxcpv294hvfwgl_w3cbnbrh0000gn/T//cci6EAd4.debug.temp.o
nvic.c.8a281680                                   /var/folders/yg/3nxcpv294hvfwgl_w3cbnbrh0000gn/T//cc0tMju5.debug.temp.o
                                                  /var/folders/yg/3nxcpv294hvfwgl_w3cbnbrh0000gn/T//ch.elf.rjwPRd.ltrans1.ltrans.o
nvicClearPending                                  ./build/obj/nvic.o (symbol from plugin)
nvicDisableVector                                 ./build/obj/nvic.o (symbol from plugin)
                                                  ./build/obj/hal_usb_lld.o (symbol from plugin)
                                                  ./build/obj/stm32_dma.o (symbol from plugin)
                                                  ./build/obj/stm32_isr.o (symbol from plugin)
nvicEnableVector                                  ./build/obj/nvic.o (symbol from plugin)
                                                  ./build/obj/hal_usb_lld.o (symbol from plugin)
                                                  ./build/obj/hal_st_lld.o (symbol from plugin)
                                                  ./build/obj/hal_sdc_lld.o (symbol from plugin)
                                                  ./build/obj/stm32_dma.o (symbol from plugin)
                                                  ./build/obj/stm32_isr.o (symbol from plugin)
nvicInit                                          ./build/obj/nvic.o (symbol from plugin)
nvicSetPending                                    ./build/obj/nvic.o (symbol from plugin)
nvicSetSystemHandlerPriority                      ./build/obj/nvic.o (symbol from plugin)
obnotify.lto_priv.0                               /var/folders/yg/3nxcpv294hvfwgl_w3cbnbrh0000gn/T//ch.elf.rjwPRd.ltrans0.ltrans.o
                                                  /var/folders/yg/3nxcpv294hvfwgl_w3cbnbrh0000gn/T//ch.elf.rjwPRd.ltrans1.ltrans.o
obqFlush                                          ./build/obj/hal_buffers.o (symbol from plugin)
obqGetEmptyBufferTimeout                          ./build/obj/hal_buffers.o (symbol from plugin)
obqGetEmptyBufferTimeoutS                         ./build/obj/hal_buffers.o (symbol from plugin)
obqGetFullBufferI                                 ./build/obj/hal_buffers.o (symbol from plugin)
                                                  ./build/obj/hal_serial_usb.o (symbol from plugin)
obqObjectInit                                     ./build/obj/hal_buffers.o (symbol from plugin)
                                                  ./build/obj/hal_serial_usb.o (symbol from plugin)
obqPostFullBuffer                                 ./build/obj/hal_buffers.o (symbol from plugin)
obqPostFullBufferS                                ./build/obj/hal_buffers.o (symbol from plugin)
obqPutTimeout                                     ./build/obj/hal_buffers.o (symbol from plugin)
                                                  ./build/obj/hal_serial_usb.o (symbol from plugin)
obqReleaseEmptyBufferI                            ./build/obj/hal_buffers.o (symbol from plugin)
                                                  ./build/obj/hal_serial_usb.o (symbol from plugin)
obqResetI                                         ./build/obj/hal_buffers.o (symbol from plugin)
                                                  ./build/obj/hal_serial_usb.o (symbol from plugin)
obqTryFlushI                                      ./build/obj/hal_buffers.o (symbol from plugin)
                                                  ./build/obj/hal_serial_usb.o (symbol from plugin)
obqWriteTimeout                                   ./build/obj/hal_buffers.o (symbol from plugin)
                                                  ./build/obj/hal_serial_usb.o (symbol from plugin)
oqGetI                                            ./build/obj/hal_queues.o (symbol from plugin)
oqObjectInit                                      ./build/obj/hal_queues.o (symbol from plugin)
oqPutI                                            ./build/obj/hal_queues.o (symbol from plugin)
oqPutTimeout                                      ./build/obj/hal_queues.o (symbol from plugin)
oqResetI                                          ./build/obj/hal_queues.o (symbol from plugin)
oqWriteI                                          ./build/obj/hal_queues.o (symbol from plugin)
oqWriteTimeout                                    ./build/obj/hal_queues.o (symbol from plugin)
osal.c.42a9b4a6                                   /var/folders/yg/3nxcpv294hvfwgl_w3cbnbrh0000gn/T//ccQ5VUdm.debug.temp.o
oslib_test_001_001_execute.lto_priv.0             /var/folders/yg/3nxcpv294hvfwgl_w3cbnbrh0000gn/T//ch.elf.rjwPRd.ltrans1.ltrans.o
                                                  /var/folders/yg/3nxcpv294hvfwgl_w3cbnbrh0000gn/T//ch.elf.rjwPRd.ltrans0.ltrans.o
oslib_test_001_002_execute.lto_priv.0             /var/folders/yg/3nxcpv294hvfwgl_w3cbnbrh0000gn/T//ch.elf.rjwPRd.ltrans1.ltrans.o
                                                  /var/folders/yg/3nxcpv294hvfwgl_w3cbnbrh0000gn/T//ch.elf.rjwPRd.ltrans0.ltrans.o
oslib_test_001_003_execute.lto_priv.0             /var/folders/yg/3nxcpv294hvfwgl_w3cbnbrh0000gn/T//ch.elf.rjwPRd.ltrans1.ltrans.o
                                                  /var/folders/yg/3nxcpv294hvfwgl_w3cbnbrh0000gn/T//ch.elf.rjwPRd.ltrans0.ltrans.o
oslib_test_002_001_execute.lto_priv.0             /var/folders/yg/3nxcpv294hvfwgl_w3cbnbrh0000gn/T//ch.elf.rjwPRd.ltrans1.ltrans.o
                                                  /var/folders/yg/3nxcpv294hvfwgl_w3cbnbrh0000gn/T//ch.elf.rjwPRd.ltrans0.ltrans.o
oslib_test_002_001_setup.lto_priv.0               /var/folders/yg/3nxcpv294hvfwgl_w3cbnbrh0000gn/T//ch.elf.rjwPRd.ltrans1.ltrans.o
                                                  /var/folders/yg/3nxcpv294hvfwgl_w3cbnbrh0000gn/T//ch.elf.rjwPRd.ltrans0.ltrans.o
oslib_test_002_001_teardown.lto_priv.0            /var/folders/yg/3nxcpv294hvfwgl_w3cbnbrh0000gn/T//ch.elf.rjwPRd.ltrans1.ltrans.o
                                                  /var/folders/yg/3nxcpv294hvfwgl_w3cbnbrh0000gn/T//ch.elf.rjwPRd.ltrans0.ltrans.o
oslib_test_002_002_execute.lto_priv.0             /var/folders/yg/3nxcpv294hvfwgl_w3cbnbrh0000gn/T//ch.elf.rjwPRd.ltrans1.ltrans.o
                                                  /var/folders/yg/3nxcpv294hvfwgl_w3cbnbrh0000gn/T//ch.elf.rjwPRd.ltrans0.ltrans.o
oslib_test_002_002_setup.lto_priv.0               /var/folders/yg/3nxcpv294hvfwgl_w3cbnbrh0000gn/T//ch.elf.rjwPRd.ltrans1.ltrans.o
                                                  /var/folders/yg/3nxcpv294hvfwgl_w3cbnbrh0000gn/T//ch.elf.rjwPRd.ltrans0.ltrans.o
oslib_test_002_002_teardown.lto_priv.0            /var/folders/yg/3nxcpv294hvfwgl_w3cbnbrh0000gn/T//ch.elf.rjwPRd.ltrans1.ltrans.o
                                                  /var/folders/yg/3nxcpv294hvfwgl_w3cbnbrh0000gn/T//ch.elf.rjwPRd.ltrans0.ltrans.o
oslib_test_002_003_execute.lto_priv.0             /var/folders/yg/3nxcpv294hvfwgl_w3cbnbrh0000gn/T//ch.elf.rjwPRd.ltrans1.ltrans.o
                                                  /var/folders/yg/3nxcpv294hvfwgl_w3cbnbrh0000gn/T//ch.elf.rjwPRd.ltrans0.ltrans.o
oslib_test_002_003_setup.lto_priv.0               /var/folders/yg/3nxcpv294hvfwgl_w3cbnbrh0000gn/T//ch.elf.rjwPRd.ltrans1.ltrans.o
                                                  /var/folders/yg/3nxcpv294hvfwgl_w3cbnbrh0000gn/T//ch.elf.rjwPRd.ltrans0.ltrans.o
oslib_test_002_003_teardown.lto_priv.0            /var/folders/yg/3nxcpv294hvfwgl_w3cbnbrh0000gn/T//ch.elf.rjwPRd.ltrans1.ltrans.o
                                                  /var/folders/yg/3nxcpv294hvfwgl_w3cbnbrh0000gn/T//ch.elf.rjwPRd.ltrans0.ltrans.o
oslib_test_003_001_execute.lto_priv.0             /var/folders/yg/3nxcpv294hvfwgl_w3cbnbrh0000gn/T//ch.elf.rjwPRd.ltrans1.ltrans.o
                                                  /var/folders/yg/3nxcpv294hvfwgl_w3cbnbrh0000gn/T//ch.elf.rjwPRd.ltrans0.ltrans.o
oslib_test_003_001_setup.lto_priv.0               /var/folders/yg/3nxcpv294hvfwgl_w3cbnbrh0000gn/T//ch.elf.rjwPRd.ltrans1.ltrans.o
                                                  /var/folders/yg/3nxcpv294hvfwgl_w3cbnbrh0000gn/T//ch.elf.rjwPRd.ltrans0.ltrans.o
oslib_test_003_002_execute.lto_priv.0             /var/folders/yg/3nxcpv294hvfwgl_w3cbnbrh0000gn/T//ch.elf.rjwPRd.ltrans1.ltrans.o
                                                  /var/folders/yg/3nxcpv294hvfwgl_w3cbnbrh0000gn/T//ch.elf.rjwPRd.ltrans0.ltrans.o
oslib_test_003_002_setup.lto_priv.0               /var/folders/yg/3nxcpv294hvfwgl_w3cbnbrh0000gn/T//ch.elf.rjwPRd.ltrans1.ltrans.o
                                                  /var/folders/yg/3nxcpv294hvfwgl_w3cbnbrh0000gn/T//ch.elf.rjwPRd.ltrans0.ltrans.o
oslib_test_004_001_execute.lto_priv.0             /var/folders/yg/3nxcpv294hvfwgl_w3cbnbrh0000gn/T//ch.elf.rjwPRd.ltrans1.ltrans.o
                                                  /var/folders/yg/3nxcpv294hvfwgl_w3cbnbrh0000gn/T//ch.elf.rjwPRd.ltrans0.ltrans.o
oslib_test_005_001_execute.lto_priv.0             /var/folders/yg/3nxcpv294hvfwgl_w3cbnbrh0000gn/T//ch.elf.rjwPRd.ltrans1.ltrans.o
                                                  /var/folders/yg/3nxcpv294hvfwgl_w3cbnbrh0000gn/T//ch.elf.rjwPRd.ltrans0.ltrans.o
oslib_test_006_001_execute.lto_priv.0             /var/folders/yg/3nxcpv294hvfwgl_w3cbnbrh0000gn/T//ch.elf.rjwPRd.ltrans1.ltrans.o
                                                  /var/folders/yg/3nxcpv294hvfwgl_w3cbnbrh0000gn/T//ch.elf.rjwPRd.ltrans0.ltrans.o
oslib_test_007_001_execute.lto_priv.0             /var/folders/yg/3nxcpv294hvfwgl_w3cbnbrh0000gn/T//ch.elf.rjwPRd.ltrans1.ltrans.o
                                                  /var/folders/yg/3nxcpv294hvfwgl_w3cbnbrh0000gn/T//ch.elf.rjwPRd.ltrans0.ltrans.o
oslib_test_007_001_setup.lto_priv.0               /var/folders/yg/3nxcpv294hvfwgl_w3cbnbrh0000gn/T//ch.elf.rjwPRd.ltrans1.ltrans.o
                                                  /var/folders/yg/3nxcpv294hvfwgl_w3cbnbrh0000gn/T//ch.elf.rjwPRd.ltrans0.ltrans.o
oslib_test_007_002_execute.lto_priv.0             /var/folders/yg/3nxcpv294hvfwgl_w3cbnbrh0000gn/T//ch.elf.rjwPRd.ltrans1.ltrans.o
                                                  /var/folders/yg/3nxcpv294hvfwgl_w3cbnbrh0000gn/T//ch.elf.rjwPRd.ltrans0.ltrans.o
oslib_test_007_002_setup.lto_priv.0               /var/folders/yg/3nxcpv294hvfwgl_w3cbnbrh0000gn/T//ch.elf.rjwPRd.ltrans1.ltrans.o
                                                  /var/folders/yg/3nxcpv294hvfwgl_w3cbnbrh0000gn/T//ch.elf.rjwPRd.ltrans0.ltrans.o
oslib_test_007_003_execute.lto_priv.0             /var/folders/yg/3nxcpv294hvfwgl_w3cbnbrh0000gn/T//ch.elf.rjwPRd.ltrans1.ltrans.o
                                                  /var/folders/yg/3nxcpv294hvfwgl_w3cbnbrh0000gn/T//ch.elf.rjwPRd.ltrans0.ltrans.o
oslib_test_007_003_setup.lto_priv.0               /var/folders/yg/3nxcpv294hvfwgl_w3cbnbrh0000gn/T//ch.elf.rjwPRd.ltrans1.ltrans.o
                                                  /var/folders/yg/3nxcpv294hvfwgl_w3cbnbrh0000gn/T//ch.elf.rjwPRd.ltrans0.ltrans.o
oslib_test_008_001_execute.lto_priv.0             /var/folders/yg/3nxcpv294hvfwgl_w3cbnbrh0000gn/T//ch.elf.rjwPRd.ltrans1.ltrans.o
                                                  /var/folders/yg/3nxcpv294hvfwgl_w3cbnbrh0000gn/T//ch.elf.rjwPRd.ltrans0.ltrans.o
oslib_test_008_001_setup.lto_priv.0               /var/folders/yg/3nxcpv294hvfwgl_w3cbnbrh0000gn/T//ch.elf.rjwPRd.ltrans1.ltrans.o
                                                  /var/folders/yg/3nxcpv294hvfwgl_w3cbnbrh0000gn/T//ch.elf.rjwPRd.ltrans0.ltrans.o
oslib_test_008_002_execute.lto_priv.0             /var/folders/yg/3nxcpv294hvfwgl_w3cbnbrh0000gn/T//ch.elf.rjwPRd.ltrans1.ltrans.o
                                                  /var/folders/yg/3nxcpv294hvfwgl_w3cbnbrh0000gn/T//ch.elf.rjwPRd.ltrans0.ltrans.o
oslib_test_009_001_execute.lto_priv.0             /var/folders/yg/3nxcpv294hvfwgl_w3cbnbrh0000gn/T//ch.elf.rjwPRd.ltrans1.ltrans.o
                                                  /var/folders/yg/3nxcpv294hvfwgl_w3cbnbrh0000gn/T//ch.elf.rjwPRd.ltrans0.ltrans.o
oslib_test_009_001_teardown.lto_priv.0            /var/folders/yg/3nxcpv294hvfwgl_w3cbnbrh0000gn/T//ch.elf.rjwPRd.ltrans1.ltrans.o
                                                  /var/folders/yg/3nxcpv294hvfwgl_w3cbnbrh0000gn/T//ch.elf.rjwPRd.ltrans0.ltrans.o
oslib_test_009_002_execute.lto_priv.0             /var/folders/yg/3nxcpv294hvfwgl_w3cbnbrh0000gn/T//ch.elf.rjwPRd.ltrans1.ltrans.o
                                                  /var/folders/yg/3nxcpv294hvfwgl_w3cbnbrh0000gn/T//ch.elf.rjwPRd.ltrans0.ltrans.o
oslib_test_009_002_teardown.lto_priv.0            /var/folders/yg/3nxcpv294hvfwgl_w3cbnbrh0000gn/T//ch.elf.rjwPRd.ltrans1.ltrans.o
                                                  /var/folders/yg/3nxcpv294hvfwgl_w3cbnbrh0000gn/T//ch.elf.rjwPRd.ltrans0.ltrans.o
oslib_test_009_003_execute.lto_priv.0             /var/folders/yg/3nxcpv294hvfwgl_w3cbnbrh0000gn/T//ch.elf.rjwPRd.ltrans1.ltrans.o
                                                  /var/folders/yg/3nxcpv294hvfwgl_w3cbnbrh0000gn/T//ch.elf.rjwPRd.ltrans0.ltrans.o
oslib_test_009_003_teardown.lto_priv.0            /var/folders/yg/3nxcpv294hvfwgl_w3cbnbrh0000gn/T//ch.elf.rjwPRd.ltrans1.ltrans.o
                                                  /var/folders/yg/3nxcpv294hvfwgl_w3cbnbrh0000gn/T//ch.elf.rjwPRd.ltrans0.ltrans.o
oslib_test_009_004_execute.lto_priv.0             /var/folders/yg/3nxcpv294hvfwgl_w3cbnbrh0000gn/T//ch.elf.rjwPRd.ltrans1.ltrans.o
                                                  /var/folders/yg/3nxcpv294hvfwgl_w3cbnbrh0000gn/T//ch.elf.rjwPRd.ltrans0.ltrans.o
oslib_test_009_004_teardown.lto_priv.0            /var/folders/yg/3nxcpv294hvfwgl_w3cbnbrh0000gn/T//ch.elf.rjwPRd.ltrans1.ltrans.o
                                                  /var/folders/yg/3nxcpv294hvfwgl_w3cbnbrh0000gn/T//ch.elf.rjwPRd.ltrans0.ltrans.o
oslib_test_009_005_execute.lto_priv.0             /var/folders/yg/3nxcpv294hvfwgl_w3cbnbrh0000gn/T//ch.elf.rjwPRd.ltrans1.ltrans.o
                                                  /var/folders/yg/3nxcpv294hvfwgl_w3cbnbrh0000gn/T//ch.elf.rjwPRd.ltrans0.ltrans.o
oslib_test_009_005_teardown.lto_priv.0            /var/folders/yg/3nxcpv294hvfwgl_w3cbnbrh0000gn/T//ch.elf.rjwPRd.ltrans1.ltrans.o
                                                  /var/folders/yg/3nxcpv294hvfwgl_w3cbnbrh0000gn/T//ch.elf.rjwPRd.ltrans0.ltrans.o
oslib_test_009_006_execute.lto_priv.0             /var/folders/yg/3nxcpv294hvfwgl_w3cbnbrh0000gn/T//ch.elf.rjwPRd.ltrans1.ltrans.o
                                                  /var/folders/yg/3nxcpv294hvfwgl_w3cbnbrh0000gn/T//ch.elf.rjwPRd.ltrans0.ltrans.o
oslib_test_009_006_teardown.lto_priv.0            /var/folders/yg/3nxcpv294hvfwgl_w3cbnbrh0000gn/T//ch.elf.rjwPRd.ltrans1.ltrans.o
                                                  /var/folders/yg/3nxcpv294hvfwgl_w3cbnbrh0000gn/T//ch.elf.rjwPRd.ltrans0.ltrans.o
oslib_test_root.c.45f765eb                        /var/folders/yg/3nxcpv294hvfwgl_w3cbnbrh0000gn/T//cc3UofA7.debug.temp.o
                                                  /var/folders/yg/3nxcpv294hvfwgl_w3cbnbrh0000gn/T//ch.elf.rjwPRd.ltrans0.ltrans.o
oslib_test_sequence_001                           ./build/obj/oslib_test_sequence_001.o (symbol from plugin)
                                                  ./build/obj/oslib_test_root.o (symbol from plugin)
oslib_test_sequence_001.c.a739e7b6                /var/folders/yg/3nxcpv294hvfwgl_w3cbnbrh0000gn/T//ccVq3MXJ.debug.temp.o
                                                  /var/folders/yg/3nxcpv294hvfwgl_w3cbnbrh0000gn/T//ch.elf.rjwPRd.ltrans1.ltrans.o
                                                  /var/folders/yg/3nxcpv294hvfwgl_w3cbnbrh0000gn/T//ch.elf.rjwPRd.ltrans0.ltrans.o
oslib_test_sequence_001_array                     ./build/obj/oslib_test_sequence_001.o (symbol from plugin)
oslib_test_sequence_002                           ./build/obj/oslib_test_sequence_002.o (symbol from plugin)
                                                  ./build/obj/oslib_test_root.o (symbol from plugin)
oslib_test_sequence_002.c.5e73c2e4                /var/folders/yg/3nxcpv294hvfwgl_w3cbnbrh0000gn/T//ccfwoRTi.debug.temp.o
                                                  /var/folders/yg/3nxcpv294hvfwgl_w3cbnbrh0000gn/T//ch.elf.rjwPRd.ltrans1.ltrans.o
                                                  /var/folders/yg/3nxcpv294hvfwgl_w3cbnbrh0000gn/T//ch.elf.rjwPRd.ltrans0.ltrans.o
oslib_test_sequence_002_array                     ./build/obj/oslib_test_sequence_002.o (symbol from plugin)
oslib_test_sequence_003                           ./build/obj/oslib_test_sequence_003.o (symbol from plugin)
                                                  ./build/obj/oslib_test_root.o (symbol from plugin)
oslib_test_sequence_003.c.1d3f1eec                /var/folders/yg/3nxcpv294hvfwgl_w3cbnbrh0000gn/T//ccELGOWK.debug.temp.o
                                                  /var/folders/yg/3nxcpv294hvfwgl_w3cbnbrh0000gn/T//ch.elf.rjwPRd.ltrans1.ltrans.o
                                                  /var/folders/yg/3nxcpv294hvfwgl_w3cbnbrh0000gn/T//ch.elf.rjwPRd.ltrans0.ltrans.o
oslib_test_sequence_003_array                     ./build/obj/oslib_test_sequence_003.o (symbol from plugin)
oslib_test_sequence_004                           ./build/obj/oslib_test_sequence_004.o (symbol from plugin)
                                                  ./build/obj/oslib_test_root.o (symbol from plugin)
oslib_test_sequence_004.c.5bcff014                /var/folders/yg/3nxcpv294hvfwgl_w3cbnbrh0000gn/T//ccmQFuwB.debug.temp.o
                                                  /var/folders/yg/3nxcpv294hvfwgl_w3cbnbrh0000gn/T//ch.elf.rjwPRd.ltrans1.ltrans.o
                                                  /var/folders/yg/3nxcpv294hvfwgl_w3cbnbrh0000gn/T//ch.elf.rjwPRd.ltrans0.ltrans.o
oslib_test_sequence_004_array                     ./build/obj/oslib_test_sequence_004.o (symbol from plugin)
oslib_test_sequence_005                           ./build/obj/oslib_test_sequence_005.o (symbol from plugin)
                                                  ./build/obj/oslib_test_root.o (symbol from plugin)
oslib_test_sequence_005.c.b260c10a                /var/folders/yg/3nxcpv294hvfwgl_w3cbnbrh0000gn/T//cc1cQscI.debug.temp.o
                                                  /var/folders/yg/3nxcpv294hvfwgl_w3cbnbrh0000gn/T//ch.elf.rjwPRd.ltrans1.ltrans.o
                                                  /var/folders/yg/3nxcpv294hvfwgl_w3cbnbrh0000gn/T//ch.elf.rjwPRd.ltrans0.ltrans.o
oslib_test_sequence_005_array                     ./build/obj/oslib_test_sequence_005.o (symbol from plugin)
oslib_test_sequence_006                           ./build/obj/oslib_test_sequence_006.o (symbol from plugin)
                                                  ./build/obj/oslib_test_root.o (symbol from plugin)
oslib_test_sequence_006.c.14252164                /var/folders/yg/3nxcpv294hvfwgl_w3cbnbrh0000gn/T//cc4Di5Oo.debug.temp.o
                                                  /var/folders/yg/3nxcpv294hvfwgl_w3cbnbrh0000gn/T//ch.elf.rjwPRd.ltrans1.ltrans.o
                                                  /var/folders/yg/3nxcpv294hvfwgl_w3cbnbrh0000gn/T//ch.elf.rjwPRd.ltrans0.ltrans.o
oslib_test_sequence_006_array                     ./build/obj/oslib_test_sequence_006.o (symbol from plugin)
oslib_test_sequence_007                           ./build/obj/oslib_test_sequence_007.o (symbol from plugin)
                                                  ./build/obj/oslib_test_root.o (symbol from plugin)
oslib_test_sequence_007.c.46545712                /var/folders/yg/3nxcpv294hvfwgl_w3cbnbrh0000gn/T//ccoOqWUS.debug.temp.o
                                                  /var/folders/yg/3nxcpv294hvfwgl_w3cbnbrh0000gn/T//ch.elf.rjwPRd.ltrans1.ltrans.o
                                                  /var/folders/yg/3nxcpv294hvfwgl_w3cbnbrh0000gn/T//ch.elf.rjwPRd.ltrans0.ltrans.o
oslib_test_sequence_007_array                     ./build/obj/oslib_test_sequence_007.o (symbol from plugin)
oslib_test_sequence_008                           ./build/obj/oslib_test_sequence_008.o (symbol from plugin)
                                                  ./build/obj/oslib_test_root.o (symbol from plugin)
oslib_test_sequence_008.c.f25a1b20                /var/folders/yg/3nxcpv294hvfwgl_w3cbnbrh0000gn/T//cc6STcVk.debug.temp.o
                                                  /var/folders/yg/3nxcpv294hvfwgl_w3cbnbrh0000gn/T//ch.elf.rjwPRd.ltrans1.ltrans.o
                                                  /var/folders/yg/3nxcpv294hvfwgl_w3cbnbrh0000gn/T//ch.elf.rjwPRd.ltrans0.ltrans.o
oslib_test_sequence_008_array                     ./build/obj/oslib_test_sequence_008.o (symbol from plugin)
oslib_test_sequence_009                           ./build/obj/oslib_test_sequence_009.o (symbol from plugin)
                                                  ./build/obj/oslib_test_root.o (symbol from plugin)
oslib_test_sequence_009.c.e99f626b                /var/folders/yg/3nxcpv294hvfwgl_w3cbnbrh0000gn/T//cce7fzph.debug.temp.o
                                                  /var/folders/yg/3nxcpv294hvfwgl_w3cbnbrh0000gn/T//ch.elf.rjwPRd.ltrans1.ltrans.o
                                                  /var/folders/yg/3nxcpv294hvfwgl_w3cbnbrh0000gn/T//ch.elf.rjwPRd.ltrans0.ltrans.o
oslib_test_sequence_009_array                     ./build/obj/oslib_test_sequence_009.o (symbol from plugin)
oslib_test_suite                                  ./build/obj/oslib_test_root.o (symbol from plugin)
                                                  ./build/obj/shell_cmd.o (symbol from plugin)
oslib_test_suite_array                            ./build/obj/oslib_test_root.o (symbol from plugin)
palReadBus                                        ./build/obj/hal_pal.o (symbol from plugin)
palSetBusMode                                     ./build/obj/hal_pal.o (symbol from plugin)
palWriteBus                                       ./build/obj/hal_pal.o (symbol from plugin)
pal_default_config                                ./build/obj/board.o (symbol from plugin)
                                                  ./build/obj/hal.o (symbol from plugin)
port_init                                         ./build/obj/chcore.o (symbol from plugin)
                                                  ./build/obj/chinstances.o (symbol from plugin)
rt_test_001_001_execute.lto_priv.0                /var/folders/yg/3nxcpv294hvfwgl_w3cbnbrh0000gn/T//ch.elf.rjwPRd.ltrans0.ltrans.o
                                                  /var/folders/yg/3nxcpv294hvfwgl_w3cbnbrh0000gn/T//ch.elf.rjwPRd.ltrans1.ltrans.o
rt_test_012_004_execute.lto_priv.0                /var/folders/yg/3nxcpv294hvfwgl_w3cbnbrh0000gn/T//ch.elf.rjwPRd.ltrans1.ltrans.o
                                                  /var/folders/yg/3nxcpv294hvfwgl_w3cbnbrh0000gn/T//ch.elf.rjwPRd.ltrans0.ltrans.o
rt_test_012_005_execute.lto_priv.0                /var/folders/yg/3nxcpv294hvfwgl_w3cbnbrh0000gn/T//ch.elf.rjwPRd.ltrans1.ltrans.o
                                                  /var/folders/yg/3nxcpv294hvfwgl_w3cbnbrh0000gn/T//ch.elf.rjwPRd.ltrans0.ltrans.o
rt_test_012_006_execute.lto_priv.0                /var/folders/yg/3nxcpv294hvfwgl_w3cbnbrh0000gn/T//ch.elf.rjwPRd.ltrans1.ltrans.o
                                                  /var/folders/yg/3nxcpv294hvfwgl_w3cbnbrh0000gn/T//ch.elf.rjwPRd.ltrans0.ltrans.o
rt_test_012_007_execute.lto_priv.0                /var/folders/yg/3nxcpv294hvfwgl_w3cbnbrh0000gn/T//ch.elf.rjwPRd.ltrans1.ltrans.o
                                                  /var/folders/yg/3nxcpv294hvfwgl_w3cbnbrh0000gn/T//ch.elf.rjwPRd.ltrans0.ltrans.o
rt_test_012_007_setup.lto_priv.0                  /var/folders/yg/3nxcpv294hvfwgl_w3cbnbrh0000gn/T//ch.elf.rjwPRd.ltrans1.ltrans.o
                                                  /var/folders/yg/3nxcpv294hvfwgl_w3cbnbrh0000gn/T//ch.elf.rjwPRd.ltrans0.ltrans.o
rt_test_012_008_execute.lto_priv.0                /var/folders/yg/3nxcpv294hvfwgl_w3cbnbrh0000gn/T//ch.elf.rjwPRd.ltrans1.ltrans.o
                                                  /var/folders/yg/3nxcpv294hvfwgl_w3cbnbrh0000gn/T//ch.elf.rjwPRd.ltrans0.ltrans.o
rt_test_012_009_execute.lto_priv.0                /var/folders/yg/3nxcpv294hvfwgl_w3cbnbrh0000gn/T//ch.elf.rjwPRd.ltrans1.ltrans.o
                                                  /var/folders/yg/3nxcpv294hvfwgl_w3cbnbrh0000gn/T//ch.elf.rjwPRd.ltrans0.ltrans.o
rt_test_012_010_execute.lto_priv.0                /var/folders/yg/3nxcpv294hvfwgl_w3cbnbrh0000gn/T//ch.elf.rjwPRd.ltrans1.ltrans.o
                                                  /var/folders/yg/3nxcpv294hvfwgl_w3cbnbrh0000gn/T//ch.elf.rjwPRd.ltrans0.ltrans.o
rt_test_012_010_setup.lto_priv.0                  /var/folders/yg/3nxcpv294hvfwgl_w3cbnbrh0000gn/T//ch.elf.rjwPRd.ltrans1.ltrans.o
                                                  /var/folders/yg/3nxcpv294hvfwgl_w3cbnbrh0000gn/T//ch.elf.rjwPRd.ltrans0.ltrans.o
rt_test_012_011_execute.lto_priv.0                /var/folders/yg/3nxcpv294hvfwgl_w3cbnbrh0000gn/T//ch.elf.rjwPRd.ltrans1.ltrans.o
                                                  /var/folders/yg/3nxcpv294hvfwgl_w3cbnbrh0000gn/T//ch.elf.rjwPRd.ltrans0.ltrans.o
rt_test_012_011_setup.lto_priv.0                  /var/folders/yg/3nxcpv294hvfwgl_w3cbnbrh0000gn/T//ch.elf.rjwPRd.ltrans1.ltrans.o
                                                  /var/folders/yg/3nxcpv294hvfwgl_w3cbnbrh0000gn/T//ch.elf.rjwPRd.ltrans0.ltrans.o
rt_test_012_012_execute.lto_priv.0                /var/folders/yg/3nxcpv294hvfwgl_w3cbnbrh0000gn/T//ch.elf.rjwPRd.ltrans1.ltrans.o
                                                  /var/folders/yg/3nxcpv294hvfwgl_w3cbnbrh0000gn/T//ch.elf.rjwPRd.ltrans0.ltrans.o
rt_test_root.c.e5c81893                           /var/folders/yg/3nxcpv294hvfwgl_w3cbnbrh0000gn/T//cczLSz6x.debug.temp.o
                                                  /var/folders/yg/3nxcpv294hvfwgl_w3cbnbrh0000gn/T//ch.elf.rjwPRd.ltrans1.ltrans.o
                                                  /var/folders/yg/3nxcpv294hvfwgl_w3cbnbrh0000gn/T//ch.elf.rjwPRd.ltrans0.ltrans.o
rt_test_sequence_001                              ./build/obj/rt_test_sequence_001.o (symbol from plugin)
                                                  ./build/obj/rt_test_root.o (symbol from plugin)
rt_test_sequence_001.c.ea9b02fc                   /var/folders/yg/3nxcpv294hvfwgl_w3cbnbrh0000gn/T//ccIzoWp0.debug.temp.o
                                                  /var/folders/yg/3nxcpv294hvfwgl_w3cbnbrh0000gn/T//ch.elf.rjwPRd.ltrans0.ltrans.o
rt_test_sequence_001_array                        ./build/obj/rt_test_sequence_001.o (symbol from plugin)
rt_test_sequence_002                              ./build/obj/rt_test_sequence_002.o (symbol from plugin)
                                                  ./build/obj/rt_test_root.o (symbol from plugin)
rt_test_sequence_002.c.5fb60149                   /var/folders/yg/3nxcpv294hvfwgl_w3cbnbrh0000gn/T//cckQ3Wnr.debug.temp.o
                                                  /var/folders/yg/3nxcpv294hvfwgl_w3cbnbrh0000gn/T//ch.elf.rjwPRd.ltrans1.ltrans.o
                                                  /var/folders/yg/3nxcpv294hvfwgl_w3cbnbrh0000gn/T//ch.elf.rjwPRd.ltrans0.ltrans.o
rt_test_sequence_002_array                        ./build/obj/rt_test_sequence_002.o (symbol from plugin)
rt_test_sequence_003                              ./build/obj/rt_test_sequence_003.o (symbol from plugin)
                                                  ./build/obj/rt_test_root.o (symbol from plugin)
rt_test_sequence_003.c.27a7f68d                   /var/folders/yg/3nxcpv294hvfwgl_w3cbnbrh0000gn/T//ccVfZGDE.debug.temp.o
                                                  /var/folders/yg/3nxcpv294hvfwgl_w3cbnbrh0000gn/T//ch.elf.rjwPRd.ltrans0.ltrans.o
rt_test_sequence_003_array                        ./build/obj/rt_test_sequence_003.o (symbol from plugin)
rt_test_sequence_004                              ./build/obj/rt_test_sequence_004.o (symbol from plugin)
                                                  ./build/obj/rt_test_root.o (symbol from plugin)
rt_test_sequence_004.c.f46527b7                   /var/folders/yg/3nxcpv294hvfwgl_w3cbnbrh0000gn/T//ccWpQNbm.debug.temp.o
                                                  /var/folders/yg/3nxcpv294hvfwgl_w3cbnbrh0000gn/T//ch.elf.rjwPRd.ltrans0.ltrans.o
rt_test_sequence_004_array                        ./build/obj/rt_test_sequence_004.o (symbol from plugin)
rt_test_sequence_005                              ./build/obj/rt_test_sequence_005.o (symbol from plugin)
                                                  ./build/obj/rt_test_root.o (symbol from plugin)
rt_test_sequence_005.c.abd691f4                   /var/folders/yg/3nxcpv294hvfwgl_w3cbnbrh0000gn/T//cc7reZA1.debug.temp.o
                                                  /var/folders/yg/3nxcpv294hvfwgl_w3cbnbrh0000gn/T//ch.elf.rjwPRd.ltrans0.ltrans.o
rt_test_sequence_005_array                        ./build/obj/rt_test_sequence_005.o (symbol from plugin)
rt_test_sequence_006                              ./build/obj/rt_test_sequence_006.o (symbol from plugin)
                                                  ./build/obj/rt_test_root.o (symbol from plugin)
rt_test_sequence_006.c.523fdff8                   /var/folders/yg/3nxcpv294hvfwgl_w3cbnbrh0000gn/T//ccPhqrTt.debug.temp.o
                                                  /var/folders/yg/3nxcpv294hvfwgl_w3cbnbrh0000gn/T//ch.elf.rjwPRd.ltrans0.ltrans.o
rt_test_sequence_006_array                        ./build/obj/rt_test_sequence_006.o (symbol from plugin)
rt_test_sequence_007                              ./build/obj/rt_test_sequence_007.o (symbol from plugin)
                                                  ./build/obj/rt_test_root.o (symbol from plugin)
rt_test_sequence_007.c.7424688a                   /var/folders/yg/3nxcpv294hvfwgl_w3cbnbrh0000gn/T//ccmcEBBm.debug.temp.o
                                                  /var/folders/yg/3nxcpv294hvfwgl_w3cbnbrh0000gn/T//ch.elf.rjwPRd.ltrans0.ltrans.o
rt_test_sequence_007_array                        ./build/obj/rt_test_sequence_007.o (symbol from plugin)
rt_test_sequence_008                              ./build/obj/rt_test_sequence_008.o (symbol from plugin)
                                                  ./build/obj/rt_test_root.o (symbol from plugin)
rt_test_sequence_008.c.0eaf384e                   /var/folders/yg/3nxcpv294hvfwgl_w3cbnbrh0000gn/T//ccwiXVqR.debug.temp.o
                                                  /var/folders/yg/3nxcpv294hvfwgl_w3cbnbrh0000gn/T//ch.elf.rjwPRd.ltrans0.ltrans.o
rt_test_sequence_008_array                        ./build/obj/rt_test_sequence_008.o (symbol from plugin)
rt_test_sequence_009                              ./build/obj/rt_test_sequence_009.o (symbol from plugin)
                                                  ./build/obj/rt_test_root.o (symbol from plugin)
rt_test_sequence_009.c.f7463aa6                   /var/folders/yg/3nxcpv294hvfwgl_w3cbnbrh0000gn/T//ccyg6n8a.debug.temp.o
                                                  /var/folders/yg/3nxcpv294hvfwgl_w3cbnbrh0000gn/T//ch.elf.rjwPRd.ltrans0.ltrans.o
rt_test_sequence_009_array                        ./build/obj/rt_test_sequence_009.o (symbol from plugin)
rt_test_sequence_010                              ./build/obj/rt_test_sequence_010.o (symbol from plugin)
                                                  ./build/obj/rt_test_root.o (symbol from plugin)
rt_test_sequence_010.c.16274a8a                   /var/folders/yg/3nxcpv294hvfwgl_w3cbnbrh0000gn/T//ccVnyM8M.debug.temp.o
                                                  /var/folders/yg/3nxcpv294hvfwgl_w3cbnbrh0000gn/T//ch.elf.rjwPRd.ltrans0.ltrans.o
rt_test_sequence_010_array                        ./build/obj/rt_test_sequence_010.o (symbol from plugin)
rt_test_sequence_011                              ./build/obj/rt_test_sequence_011.o (symbol from plugin)
                                                  ./build/obj/rt_test_root.o (symbol from plugin)
rt_test_sequence_011.c.c693da96                   /var/folders/yg/3nxcpv294hvfwgl_w3cbnbrh0000gn/T//cca1IPIp.debug.temp.o
                                                  /var/folders/yg/3nxcpv294hvfwgl_w3cbnbrh0000gn/T//ch.elf.rjwPRd.ltrans0.ltrans.o
rt_test_sequence_011_array                        ./build/obj/rt_test_sequence_011.o (symbol from plugin)
rt_test_sequence_012                              ./build/obj/rt_test_sequence_012.o (symbol from plugin)
                                                  ./build/obj/rt_test_root.o (symbol from plugin)
rt_test_sequence_012.c.bacbe66e                   /var/folders/yg/3nxcpv294hvfwgl_w3cbnbrh0000gn/T//ccX1xGxm.debug.temp.o
                                                  /var/folders/yg/3nxcpv294hvfwgl_w3cbnbrh0000gn/T//ch.elf.rjwPRd.ltrans1.ltrans.o
                                                  /var/folders/yg/3nxcpv294hvfwgl_w3cbnbrh0000gn/T//ch.elf.rjwPRd.ltrans0.ltrans.o
rt_test_sequence_012_array                        ./build/obj/rt_test_sequence_012.o (symbol from plugin)
rt_test_suite                                     ./build/obj/rt_test_root.o (symbol from plugin)
                                                  ./build/obj/shell_cmd.o (symbol from plugin)
rt_test_suite_array                               ./build/obj/rt_test_root.o (symbol from plugin)
sdcConnect                                        /var/folders/yg/3nxcpv294hvfwgl_w3cbnbrh0000gn/T//ch.elf.rjwPRd.ltrans0.ltrans.o
                                                  ./build/obj/hal_sdc.o (symbol from plugin)
                                                  /var/folders/yg/3nxcpv294hvfwgl_w3cbnbrh0000gn/T//ch.elf.rjwPRd.ltrans1.ltrans.o
                                                  ./build/obj/main.o (symbol from plugin)
sdcDisconnect                                     /var/folders/yg/3nxcpv294hvfwgl_w3cbnbrh0000gn/T//ch.elf.rjwPRd.ltrans0.ltrans.o
                                                  ./build/obj/hal_sdc.o (symbol from plugin)
                                                  /var/folders/yg/3nxcpv294hvfwgl_w3cbnbrh0000gn/T//ch.elf.rjwPRd.ltrans1.ltrans.o
                                                  ./build/obj/main.o (symbol from plugin)
sdcErase                                          ./build/obj/hal_sdc.o (symbol from plugin)
sdcGetAndClearErrors                              ./build/obj/hal_sdc.o (symbol from plugin)
sdcGetInfo                                        /var/folders/yg/3nxcpv294hvfwgl_w3cbnbrh0000gn/T//ch.elf.rjwPRd.ltrans0.ltrans.o
                                                  ./build/obj/hal_sdc.o (symbol from plugin)
                                                  /var/folders/yg/3nxcpv294hvfwgl_w3cbnbrh0000gn/T//ch.elf.rjwPRd.ltrans1.ltrans.o
sdcInit                                           ./build/obj/hal_sdc.o (symbol from plugin)
                                                  ./build/obj/hal.o (symbol from plugin)
sdcObjectInit                                     ./build/obj/hal_sdc.o (symbol from plugin)
                                                  ./build/obj/hal_sdc_lld.o (symbol from plugin)
sdcRead                                           /var/folders/yg/3nxcpv294hvfwgl_w3cbnbrh0000gn/T//ch.elf.rjwPRd.ltrans0.ltrans.o
                                                  ./build/obj/hal_sdc.o (symbol from plugin)
                                                  /var/folders/yg/3nxcpv294hvfwgl_w3cbnbrh0000gn/T//ch.elf.rjwPRd.ltrans1.ltrans.o
                                                  ./build/obj/fatfs_diskio.o (symbol from plugin)
sdcStart                                          ./build/obj/hal_sdc.o (symbol from plugin)
                                                  ./build/obj/main.o (symbol from plugin)
sdcStop                                           ./build/obj/hal_sdc.o (symbol from plugin)
sdcSync                                           /var/folders/yg/3nxcpv294hvfwgl_w3cbnbrh0000gn/T//ch.elf.rjwPRd.ltrans0.ltrans.o
                                                  ./build/obj/hal_sdc.o (symbol from plugin)
                                                  /var/folders/yg/3nxcpv294hvfwgl_w3cbnbrh0000gn/T//ch.elf.rjwPRd.ltrans1.ltrans.o
sdcWrite                                          /var/folders/yg/3nxcpv294hvfwgl_w3cbnbrh0000gn/T//ch.elf.rjwPRd.ltrans0.ltrans.o
                                                  ./build/obj/hal_sdc.o (symbol from plugin)
                                                  /var/folders/yg/3nxcpv294hvfwgl_w3cbnbrh0000gn/T//ch.elf.rjwPRd.ltrans1.ltrans.o
                                                  ./build/obj/fatfs_diskio.o (symbol from plugin)
sdc_lld_init                                      ./build/obj/hal_sdc_lld.o (symbol from plugin)
                                                  ./build/obj/hal_sdc.o (symbol from plugin)
sdc_lld_is_card_inserted                          /var/folders/yg/3nxcpv294hvfwgl_w3cbnbrh0000gn/T//ch.elf.rjwPRd.ltrans0.ltrans.o
                                                  ./build/obj/board.o (symbol from plugin)
                                                  /var/folders/yg/3nxcpv294hvfwgl_w3cbnbrh0000gn/T//ch.elf.rjwPRd.ltrans1.ltrans.o
                                                  ./build/obj/hal_sdc.o (symbol from plugin)
sdc_lld_is_write_protected                        /var/folders/yg/3nxcpv294hvfwgl_w3cbnbrh0000gn/T//ch.elf.rjwPRd.ltrans0.ltrans.o
                                                  ./build/obj/board.o (symbol from plugin)
                                                  /var/folders/yg/3nxcpv294hvfwgl_w3cbnbrh0000gn/T//ch.elf.rjwPRd.ltrans1.ltrans.o
                                                  ./build/obj/fatfs_diskio.o (symbol from plugin)
                                                  ./build/obj/hal_sdc.o (symbol from plugin)
sdc_lld_read                                      ./build/obj/hal_sdc_lld.o (symbol from plugin)
                                                  ./build/obj/hal_sdc.o (symbol from plugin)
sdc_lld_read_aligned                              ./build/obj/hal_sdc_lld.o (symbol from plugin)
sdc_lld_read_special                              ./build/obj/hal_sdc_lld.o (symbol from plugin)
                                                  ./build/obj/hal_sdc.o (symbol from plugin)
sdc_lld_send_cmd_long_crc                         ./build/obj/hal_sdc_lld.o (symbol from plugin)
                                                  ./build/obj/hal_sdc.o (symbol from plugin)
sdc_lld_send_cmd_none                             ./build/obj/hal_sdc_lld.o (symbol from plugin)
                                                  ./build/obj/hal_sdc.o (symbol from plugin)
sdc_lld_send_cmd_short                            ./build/obj/hal_sdc_lld.o (symbol from plugin)
                                                  ./build/obj/hal_sdc.o (symbol from plugin)
sdc_lld_send_cmd_short_crc                        ./build/obj/hal_sdc_lld.o (symbol from plugin)
                                                  ./build/obj/hal_sdc.o (symbol from plugin)
sdc_lld_set_bus_mode                              ./build/obj/hal_sdc_lld.o (symbol from plugin)
                                                  ./build/obj/hal_sdc.o (symbol from plugin)
sdc_lld_set_data_clk                              ./build/obj/hal_sdc_lld.o (symbol from plugin)
                                                  ./build/obj/hal_sdc.o (symbol from plugin)
sdc_lld_start                                     ./build/obj/hal_sdc_lld.o (symbol from plugin)
                                                  ./build/obj/hal_sdc.o (symbol from plugin)
sdc_lld_start_clk                                 ./build/obj/hal_sdc_lld.o (symbol from plugin)
                                                  ./build/obj/hal_sdc.o (symbol from plugin)
sdc_lld_stop                                      ./build/obj/hal_sdc_lld.o (symbol from plugin)
                                                  ./build/obj/hal_sdc.o (symbol from plugin)
sdc_lld_stop_clk                                  ./build/obj/hal_sdc_lld.o (symbol from plugin)
                                                  ./build/obj/hal_sdc.o (symbol from plugin)
sdc_lld_sync                                      /var/folders/yg/3nxcpv294hvfwgl_w3cbnbrh0000gn/T//ch.elf.rjwPRd.ltrans0.ltrans.o
                                                  ./build/obj/hal_sdc_lld.o (symbol from plugin)
                                                  ./build/obj/hal_sdc.o (symbol from plugin)
sdc_lld_write                                     ./build/obj/hal_sdc_lld.o (symbol from plugin)
                                                  ./build/obj/hal_sdc.o (symbol from plugin)
sdc_lld_write_aligned                             ./build/obj/hal_sdc_lld.o (symbol from plugin)
sduConfigureHookI                                 ./build/obj/hal_serial_usb.o (symbol from plugin)
                                                  ./build/obj/usbcfg.o (symbol from plugin)
sduControl                                        ./build/obj/hal_serial_usb.o (symbol from plugin)
sduDataReceived                                   ./build/obj/hal_serial_usb.o (symbol from plugin)
                                                  ./build/obj/usbcfg.o (symbol from plugin)
sduDataTransmitted                                ./build/obj/hal_serial_usb.o (symbol from plugin)
                                                  ./build/obj/usbcfg.o (symbol from plugin)
sduInit                                           ./build/obj/hal_serial_usb.o (symbol from plugin)
                                                  ./build/obj/hal.o (symbol from plugin)
sduInterruptTransmitted                           ./build/obj/hal_serial_usb.o (symbol from plugin)
                                                  ./build/obj/usbcfg.o (symbol from plugin)
sduObjectInit                                     ./build/obj/hal_serial_usb.o (symbol from plugin)
                                                  ./build/obj/main.o (symbol from plugin)
sduRequestsHook                                   /var/folders/yg/3nxcpv294hvfwgl_w3cbnbrh0000gn/T//ch.elf.rjwPRd.ltrans0.ltrans.o
                                                  ./build/obj/hal_serial_usb.o (symbol from plugin)
                                                  /var/folders/yg/3nxcpv294hvfwgl_w3cbnbrh0000gn/T//ch.elf.rjwPRd.ltrans1.ltrans.o
                                                  ./build/obj/usbcfg.o (symbol from plugin)
sduSOFHookI                                       ./build/obj/hal_serial_usb.o (symbol from plugin)
                                                  ./build/obj/usbcfg.o (symbol from plugin)
sduStart                                          ./build/obj/hal_serial_usb.o (symbol from plugin)
                                                  ./build/obj/main.o (symbol from plugin)
sduStop                                           ./build/obj/hal_serial_usb.o (symbol from plugin)
sduSuspendHookI                                   ./build/obj/hal_serial_usb.o (symbol from plugin)
                                                  ./build/obj/usbcfg.o (symbol from plugin)
sduWakeupHookI                                    ./build/obj/hal_serial_usb.o (symbol from plugin)
                                                  ./build/obj/usbcfg.o (symbol from plugin)
sdu_start_receive.isra.0                          /var/folders/yg/3nxcpv294hvfwgl_w3cbnbrh0000gn/T//ch.elf.rjwPRd.ltrans1.ltrans.o
                                                  /var/folders/yg/3nxcpv294hvfwgl_w3cbnbrh0000gn/T//ch.elf.rjwPRd.ltrans0.ltrans.o
sem1.lto_priv.0                                   /var/folders/yg/3nxcpv294hvfwgl_w3cbnbrh0000gn/T//ch.elf.rjwPRd.ltrans0.ltrans.o
                                                  /var/folders/yg/3nxcpv294hvfwgl_w3cbnbrh0000gn/T//ch.elf.rjwPRd.ltrans1.ltrans.o
sem1.lto_priv.1                                   /var/folders/yg/3nxcpv294hvfwgl_w3cbnbrh0000gn/T//ch.elf.rjwPRd.ltrans0.ltrans.o
                                                  /var/folders/yg/3nxcpv294hvfwgl_w3cbnbrh0000gn/T//ch.elf.rjwPRd.ltrans1.ltrans.o
serusbcfg                                         ./build/obj/usbcfg.o (symbol from plugin)
                                                  ./build/obj/main.o (symbol from plugin)
shell.c.6e9897f4                                  /var/folders/yg/3nxcpv294hvfwgl_w3cbnbrh0000gn/T//cc2fkOpI.debug.temp.o
                                                  /var/folders/yg/3nxcpv294hvfwgl_w3cbnbrh0000gn/T//ch.elf.rjwPRd.ltrans1.ltrans.o
                                                  /var/folders/yg/3nxcpv294hvfwgl_w3cbnbrh0000gn/T//ch.elf.rjwPRd.ltrans0.ltrans.o
shellExit                                         ./build/obj/shell.o (symbol from plugin)
                                                  ./build/obj/shell_cmd.o (symbol from plugin)
shellGetLine                                      ./build/obj/shell.o (symbol from plugin)
shellInit                                         ./build/obj/shell.o (symbol from plugin)
                                                  ./build/obj/main.o (symbol from plugin)
shellThread                                       /var/folders/yg/3nxcpv294hvfwgl_w3cbnbrh0000gn/T//ch.elf.rjwPRd.ltrans0.ltrans.o
                                                  ./build/obj/shell.o (symbol from plugin)
                                                  /var/folders/yg/3nxcpv294hvfwgl_w3cbnbrh0000gn/T//ch.elf.rjwPRd.ltrans1.ltrans.o
                                                  ./build/obj/main.o (symbol from plugin)
shell_cmd.c.9f96c1bb                              /var/folders/yg/3nxcpv294hvfwgl_w3cbnbrh0000gn/T//cch7ycES.debug.temp.o
                                                  /var/folders/yg/3nxcpv294hvfwgl_w3cbnbrh0000gn/T//ch.elf.rjwPRd.ltrans0.ltrans.o
shell_local_commands                              ./build/obj/shell_cmd.o (symbol from plugin)
                                                  ./build/obj/shell.o (symbol from plugin)
shell_terminated                                  /var/folders/yg/3nxcpv294hvfwgl_w3cbnbrh0000gn/T//ch.elf.rjwPRd.ltrans0.ltrans.o
                                                  ./build/obj/shell.o (symbol from plugin)
                                                  /var/folders/yg/3nxcpv294hvfwgl_w3cbnbrh0000gn/T//ch.elf.rjwPRd.ltrans1.ltrans.o
                                                  ./build/obj/main.o (symbol from plugin)
sof_handler.lto_priv.0                            /var/folders/yg/3nxcpv294hvfwgl_w3cbnbrh0000gn/T//ch.elf.rjwPRd.ltrans0.ltrans.o
                                                  /var/folders/yg/3nxcpv294hvfwgl_w3cbnbrh0000gn/T//ch.elf.rjwPRd.ltrans1.ltrans.o
stGetAlarm                                        ./build/obj/hal_st.o (symbol from plugin)
stGetCounter                                      ./build/obj/hal_st.o (symbol from plugin)
                                                  ./build/obj/rt_test_sequence_012.o (symbol from plugin)
                                                  ./build/obj/rt_test_sequence_006.o (symbol from plugin)
                                                  ./build/obj/rt_test_sequence_005.o (symbol from plugin)
                                                  ./build/obj/rt_test_sequence_004.o (symbol from plugin)
                                                  ./build/obj/rt_test_sequence_003.o (symbol from plugin)
                                                  ./build/obj/rt_test_root.o (symbol from plugin)
                                                  ./build/obj/ch_test.o (symbol from plugin)
                                                  ./build/obj/shell_cmd.o (symbol from plugin)
                                                  ./build/obj/chthreads.o (symbol from plugin)
                                                  ./build/obj/chinstances.o (symbol from plugin)
                                                  ./build/obj/chvt.o (symbol from plugin)
stInit                                            ./build/obj/hal_st.o (symbol from plugin)
                                                  ./build/obj/hal.o (symbol from plugin)
stIsAlarmActive                                   ./build/obj/hal_st.o (symbol from plugin)
stSetAlarm                                        ./build/obj/hal_st.o (symbol from plugin)
                                                  ./build/obj/chvt.o (symbol from plugin)
stStartAlarm                                      ./build/obj/hal_st.o (symbol from plugin)
                                                  ./build/obj/chvt.o (symbol from plugin)
stStopAlarm                                       ./build/obj/hal_st.o (symbol from plugin)
                                                  ./build/obj/chvt.o (symbol from plugin)
st_lld_init                                       ./build/obj/hal_st_lld.o (symbol from plugin)
                                                  ./build/obj/hal_st.o (symbol from plugin)
st_lld_serve_interrupt                            ./build/obj/hal_st_lld.o (symbol from plugin)
stm32_clock_init                                  ./build/obj/hal_lld.o (symbol from plugin)
                                                  ./build/obj/board.o (symbol from plugin)
stm32_dma.c.878fff79                              /var/folders/yg/3nxcpv294hvfwgl_w3cbnbrh0000gn/T//ccc8RR6m.debug.temp.o
                                                  /var/folders/yg/3nxcpv294hvfwgl_w3cbnbrh0000gn/T//ch.elf.rjwPRd.ltrans1.ltrans.o
                                                  /var/folders/yg/3nxcpv294hvfwgl_w3cbnbrh0000gn/T//ch.elf.rjwPRd.ltrans0.ltrans.o
stm32_isr.c.ad5990bd                              /var/folders/yg/3nxcpv294hvfwgl_w3cbnbrh0000gn/T//ccHzzi5N.debug.temp.o
                                                  /var/folders/yg/3nxcpv294hvfwgl_w3cbnbrh0000gn/T//ch.elf.rjwPRd.ltrans1.ltrans.o
strchr                                            /usr/local/Caskroom/gcc-arm-embedded/10-2020-q4-major/gcc-arm-none-eabi-10-2020-q4-major/bin/../lib/gcc/arm-none-eabi/10.2.1/../../../../arm-none-eabi/lib/thumb/v7-m/nofp/libg.a(lib_a-strchr.o)
                                                  /var/folders/yg/3nxcpv294hvfwgl_w3cbnbrh0000gn/T//ch.elf.rjwPRd.ltrans0.ltrans.o
strcmp                                            /usr/local/Caskroom/gcc-arm-embedded/10-2020-q4-major/gcc-arm-none-eabi-10-2020-q4-major/bin/../lib/gcc/arm-none-eabi/10.2.1/../../../../arm-none-eabi/lib/thumb/v7-m/nofp/libg.a(lib_a-strcmp.o)
                                                  /var/folders/yg/3nxcpv294hvfwgl_w3cbnbrh0000gn/T//ch.elf.rjwPRd.ltrans1.ltrans.o
                                                  /var/folders/yg/3nxcpv294hvfwgl_w3cbnbrh0000gn/T//ch.elf.rjwPRd.ltrans0.ltrans.o
strcpy                                            /usr/local/Caskroom/gcc-arm-embedded/10-2020-q4-major/gcc-arm-none-eabi-10-2020-q4-major/bin/../lib/gcc/arm-none-eabi/10.2.1/../../../../arm-none-eabi/lib/thumb/v7-m/nofp/libg.a(lib_a-strcpy.o)
                                                  /var/folders/yg/3nxcpv294hvfwgl_w3cbnbrh0000gn/T//ch.elf.rjwPRd.ltrans1.ltrans.o
strlen                                            /usr/local/Caskroom/gcc-arm-embedded/10-2020-q4-major/gcc-arm-none-eabi-10-2020-q4-major/bin/../lib/gcc/arm-none-eabi/10.2.1/../../../../arm-none-eabi/lib/thumb/v7-m/nofp/libg.a(lib_a-strlen-stub.o)
                                                  /var/folders/yg/3nxcpv294hvfwgl_w3cbnbrh0000gn/T//ch.elf.rjwPRd.ltrans1.ltrans.o
strncmp                                           /usr/local/Caskroom/gcc-arm-embedded/10-2020-q4-major/gcc-arm-none-eabi-10-2020-q4-major/bin/../lib/gcc/arm-none-eabi/10.2.1/../../../../arm-none-eabi/lib/thumb/v7-m/nofp/libg.a(lib_a-strncmp.o)
                                                  /var/folders/yg/3nxcpv294hvfwgl_w3cbnbrh0000gn/T//ch.elf.rjwPRd.ltrans0.ltrans.o
strpbrk                                           /usr/local/Caskroom/gcc-arm-embedded/10-2020-q4-major/gcc-arm-none-eabi-10-2020-q4-major/bin/../lib/gcc/arm-none-eabi/10.2.1/../../../../arm-none-eabi/lib/thumb/v7-m/nofp/libg.a(lib_a-strpbrk.o)
                                                  /var/folders/yg/3nxcpv294hvfwgl_w3cbnbrh0000gn/T//ch.elf.rjwPRd.ltrans0.ltrans.o
strspn                                            /usr/local/Caskroom/gcc-arm-embedded/10-2020-q4-major/gcc-arm-none-eabi-10-2020-q4-major/bin/../lib/gcc/arm-none-eabi/10.2.1/../../../../arm-none-eabi/lib/thumb/v7-m/nofp/libg.a(lib_a-strspn.o)
                                                  /var/folders/yg/3nxcpv294hvfwgl_w3cbnbrh0000gn/T//ch.elf.rjwPRd.ltrans0.ltrans.o
test_buffer                                       /var/folders/yg/3nxcpv294hvfwgl_w3cbnbrh0000gn/T//ch.elf.rjwPRd.ltrans0.ltrans.o
                                                  ./build/obj/rt_test_root.o (symbol from plugin)
                                                  /var/folders/yg/3nxcpv294hvfwgl_w3cbnbrh0000gn/T//ch.elf.rjwPRd.ltrans1.ltrans.o
                                                  ./build/obj/rt_test_sequence_011.o (symbol from plugin)
test_emit_token                                   ./build/obj/ch_test.o (symbol from plugin)
                                                  ./build/obj/oslib_test_sequence_006.o (symbol from plugin)
                                                  ./build/obj/oslib_test_sequence_005.o (symbol from plugin)
                                                  ./build/obj/oslib_test_sequence_004.o (symbol from plugin)
                                                  ./build/obj/oslib_test_sequence_002.o (symbol from plugin)
                                                  ./build/obj/rt_test_sequence_011.o (symbol from plugin)
                                                  ./build/obj/rt_test_sequence_010.o (symbol from plugin)
                                                  ./build/obj/rt_test_sequence_009.o (symbol from plugin)
                                                  ./build/obj/rt_test_sequence_008.o (symbol from plugin)
                                                  ./build/obj/rt_test_sequence_007.o (symbol from plugin)
                                                  ./build/obj/rt_test_sequence_006.o (symbol from plugin)
                                                  ./build/obj/rt_test_sequence_005.o (symbol from plugin)
test_execute_inner.isra.0                         /var/folders/yg/3nxcpv294hvfwgl_w3cbnbrh0000gn/T//ch.elf.rjwPRd.ltrans1.ltrans.o
                                                  /var/folders/yg/3nxcpv294hvfwgl_w3cbnbrh0000gn/T//ch.elf.rjwPRd.ltrans0.ltrans.o
test_execute_putchar                              ./build/obj/ch_test.o (symbol from plugin)
test_execute_stream                               ./build/obj/ch_test.o (symbol from plugin)
                                                  ./build/obj/shell_cmd.o (symbol from plugin)
test_printf                                       /var/folders/yg/3nxcpv294hvfwgl_w3cbnbrh0000gn/T//ch.elf.rjwPRd.ltrans0.ltrans.o
                                                  ./build/obj/ch_test_printf.o (symbol from plugin)
                                                  /var/folders/yg/3nxcpv294hvfwgl_w3cbnbrh0000gn/T//ch.elf.rjwPRd.ltrans1.ltrans.o
                                                  ./build/obj/oslib_test_sequence_001.o (symbol from plugin)
                                                  ./build/obj/rt_test_sequence_012.o (symbol from plugin)
                                                  ./build/obj/rt_test_sequence_001.o (symbol from plugin)
                                                  ./build/obj/ch_test.o (symbol from plugin)
test_putchar                                      ./build/obj/ch_test_printf.o (symbol from plugin)
                                                  ./build/obj/ch_test.o (symbol from plugin)
test_terminate_threads                            ./build/obj/rt_test_root.o (symbol from plugin)
                                                  ./build/obj/rt_test_sequence_012.o (symbol from plugin)
test_vprintf                                      ./build/obj/ch_test_printf.o (symbol from plugin)
test_wait_threads                                 ./build/obj/rt_test_root.o (symbol from plugin)
                                                  ./build/obj/rt_test_sequence_012.o (symbol from plugin)
                                                  ./build/obj/rt_test_sequence_011.o (symbol from plugin)
                                                  ./build/obj/rt_test_sequence_010.o (symbol from plugin)
                                                  ./build/obj/rt_test_sequence_009.o (symbol from plugin)
                                                  ./build/obj/rt_test_sequence_008.o (symbol from plugin)
                                                  ./build/obj/rt_test_sequence_007.o (symbol from plugin)
                                                  ./build/obj/rt_test_sequence_006.o (symbol from plugin)
                                                  ./build/obj/rt_test_sequence_005.o (symbol from plugin)
test_wait_tick                                    /var/folders/yg/3nxcpv294hvfwgl_w3cbnbrh0000gn/T//ch.elf.rjwPRd.ltrans0.ltrans.o
                                                  ./build/obj/rt_test_root.o (symbol from plugin)
                                                  ./build/obj/rt_test_sequence_012.o (symbol from plugin)
                                                  ./build/obj/rt_test_sequence_010.o (symbol from plugin)
                                                  ./build/obj/rt_test_sequence_007.o (symbol from plugin)
                                                  ./build/obj/rt_test_sequence_004.o (symbol from plugin)
threads                                           /var/folders/yg/3nxcpv294hvfwgl_w3cbnbrh0000gn/T//ch.elf.rjwPRd.ltrans0.ltrans.o
                                                  ./build/obj/rt_test_root.o (symbol from plugin)
                                                  /var/folders/yg/3nxcpv294hvfwgl_w3cbnbrh0000gn/T//ch.elf.rjwPRd.ltrans1.ltrans.o
                                                  ./build/obj/rt_test_sequence_012.o (symbol from plugin)
                                                  ./build/obj/rt_test_sequence_011.o (symbol from plugin)
                                                  ./build/obj/rt_test_sequence_010.o (symbol from plugin)
                                                  ./build/obj/rt_test_sequence_009.o (symbol from plugin)
                                                  ./build/obj/rt_test_sequence_008.o (symbol from plugin)
                                                  ./build/obj/rt_test_sequence_007.o (symbol from plugin)
                                                  ./build/obj/rt_test_sequence_006.o (symbol from plugin)
                                                  ./build/obj/rt_test_sequence_005.o (symbol from plugin)
tmo.lto_priv.0                                    /var/folders/yg/3nxcpv294hvfwgl_w3cbnbrh0000gn/T//ch.elf.rjwPRd.ltrans0.ltrans.o
                                                  /var/folders/yg/3nxcpv294hvfwgl_w3cbnbrh0000gn/T//ch.elf.rjwPRd.ltrans1.ltrans.o
usbDisableEndpointsI                              ./build/obj/hal_usb.o (symbol from plugin)
usbInit                                           ./build/obj/hal_usb.o (symbol from plugin)
                                                  ./build/obj/hal.o (symbol from plugin)
usbInitEndpointI                                  ./build/obj/hal_usb.o (symbol from plugin)
                                                  ./build/obj/usbcfg.o (symbol from plugin)
usbObjectInit                                     ./build/obj/hal_usb.o (symbol from plugin)
                                                  ./build/obj/hal_usb_lld.o (symbol from plugin)
usbStallReceiveI                                  ./build/obj/hal_usb.o (symbol from plugin)
usbStallTransmitI                                 ./build/obj/hal_usb.o (symbol from plugin)
usbStart                                          ./build/obj/hal_usb.o (symbol from plugin)
                                                  ./build/obj/main.o (symbol from plugin)
usbStartReceiveI                                  /var/folders/yg/3nxcpv294hvfwgl_w3cbnbrh0000gn/T//ch.elf.rjwPRd.ltrans0.ltrans.o
                                                  ./build/obj/hal_usb.o (symbol from plugin)
                                                  /var/folders/yg/3nxcpv294hvfwgl_w3cbnbrh0000gn/T//ch.elf.rjwPRd.ltrans1.ltrans.o
                                                  ./build/obj/hal_serial_usb.o (symbol from plugin)
usbStartTransmitI                                 ./build/obj/hal_usb.o (symbol from plugin)
                                                  ./build/obj/hal_serial_usb.o (symbol from plugin)
usbStop                                           ./build/obj/hal_usb.o (symbol from plugin)
usbWakeupHost                                     ./build/obj/hal_usb.o (symbol from plugin)
usb_event.lto_priv.0                              /var/folders/yg/3nxcpv294hvfwgl_w3cbnbrh0000gn/T//ch.elf.rjwPRd.ltrans0.ltrans.o
                                                  /var/folders/yg/3nxcpv294hvfwgl_w3cbnbrh0000gn/T//ch.elf.rjwPRd.ltrans1.ltrans.o
usb_lld_clear_in                                  ./build/obj/hal_usb_lld.o (symbol from plugin)
                                                  ./build/obj/hal_usb.o (symbol from plugin)
usb_lld_clear_out                                 ./build/obj/hal_usb_lld.o (symbol from plugin)
                                                  ./build/obj/hal_usb.o (symbol from plugin)
usb_lld_disable_endpoints                         ./build/obj/hal_usb_lld.o (symbol from plugin)
                                                  ./build/obj/hal_usb.o (symbol from plugin)
usb_lld_get_status_in                             ./build/obj/hal_usb_lld.o (symbol from plugin)
                                                  ./build/obj/hal_usb.o (symbol from plugin)
usb_lld_get_status_out                            ./build/obj/hal_usb_lld.o (symbol from plugin)
                                                  ./build/obj/hal_usb.o (symbol from plugin)
usb_lld_init                                      ./build/obj/hal_usb_lld.o (symbol from plugin)
                                                  ./build/obj/hal_usb.o (symbol from plugin)
usb_lld_init_endpoint                             /var/folders/yg/3nxcpv294hvfwgl_w3cbnbrh0000gn/T//ch.elf.rjwPRd.ltrans0.ltrans.o
                                                  ./build/obj/hal_usb_lld.o (symbol from plugin)
                                                  /var/folders/yg/3nxcpv294hvfwgl_w3cbnbrh0000gn/T//ch.elf.rjwPRd.ltrans1.ltrans.o
                                                  ./build/obj/hal_usb.o (symbol from plugin)
usb_lld_read_setup                                ./build/obj/hal_usb_lld.o (symbol from plugin)
                                                  ./build/obj/hal_usb.o (symbol from plugin)
usb_lld_reset                                     ./build/obj/hal_usb_lld.o (symbol from plugin)
                                                  ./build/obj/hal_usb.o (symbol from plugin)
usb_lld_set_address                               ./build/obj/hal_usb_lld.o (symbol from plugin)
                                                  ./build/obj/hal_usb.o (symbol from plugin)
usb_lld_stall_in                                  ./build/obj/hal_usb_lld.o (symbol from plugin)
                                                  ./build/obj/hal_usb.o (symbol from plugin)
usb_lld_stall_out                                 ./build/obj/hal_usb_lld.o (symbol from plugin)
                                                  ./build/obj/hal_usb.o (symbol from plugin)
usb_lld_start                                     ./build/obj/hal_usb_lld.o (symbol from plugin)
                                                  ./build/obj/hal_usb.o (symbol from plugin)
usb_lld_start_in                                  ./build/obj/hal_usb_lld.o (symbol from plugin)
                                                  ./build/obj/hal_usb.o (symbol from plugin)
usb_lld_start_out                                 ./build/obj/hal_usb_lld.o (symbol from plugin)
                                                  ./build/obj/hal_usb.o (symbol from plugin)
usb_lld_stop                                      ./build/obj/hal_usb_lld.o (symbol from plugin)
                                                  ./build/obj/hal_usb.o (symbol from plugin)
usbcfg                                            ./build/obj/usbcfg.o (symbol from plugin)
                                                  ./build/obj/main.o (symbol from plugin)
usbcfg.c.345c8150                                 /var/folders/yg/3nxcpv294hvfwgl_w3cbnbrh0000gn/T//ccGvMwdD.debug.temp.o
                                                  /var/folders/yg/3nxcpv294hvfwgl_w3cbnbrh0000gn/T//ch.elf.rjwPRd.ltrans1.ltrans.o
                                                  /var/folders/yg/3nxcpv294hvfwgl_w3cbnbrh0000gn/T//ch.elf.rjwPRd.ltrans0.ltrans.o
vt_enqueue.constprop.0                            /var/folders/yg/3nxcpv294hvfwgl_w3cbnbrh0000gn/T//ch.elf.rjwPRd.ltrans1.ltrans.o
                                                  /var/folders/yg/3nxcpv294hvfwgl_w3cbnbrh0000gn/T//ch.elf.rjwPRd.ltrans0.ltrans.o
wa                                                /var/folders/yg/3nxcpv294hvfwgl_w3cbnbrh0000gn/T//ch.elf.rjwPRd.ltrans0.ltrans.o
                                                  ./build/obj/rt_test_root.o (symbol from plugin)
                                                  ./build/obj/rt_test_sequence_012.o (symbol from plugin)
                                                  ./build/obj/rt_test_sequence_011.o (symbol from plugin)
                                                  ./build/obj/rt_test_sequence_010.o (symbol from plugin)
                                                  ./build/obj/rt_test_sequence_009.o (symbol from plugin)
                                                  ./build/obj/rt_test_sequence_008.o (symbol from plugin)
                                                  ./build/obj/rt_test_sequence_007.o (symbol from plugin)
                                                  ./build/obj/rt_test_sequence_006.o (symbol from plugin)
                                                  ./build/obj/rt_test_sequence_005.o (symbol from plugin)
